(dp0
S'id2object'
p1
(dp2
I0
S'toilet'
p3
sI1
S'teddy_bear'
p4
sI2
S'sports_ball'
p5
sI3
S'bicycle'
p6
sI4
S'kite'
p7
sI5
S'skis'
p8
sI6
S'tennis_racket'
p9
sI7
S'donut'
p10
sI8
S'snowboard'
p11
sI9
S'sandwich'
p12
sI10
S'motorcycle'
p13
sI11
S'oven'
p14
sI12
S'keyboard'
p15
sI13
S'scissors'
p16
sI14
S'chair'
p17
sI15
S'couch'
p18
sI16
S'mouse'
p19
sI17
S'clock'
p20
sI18
S'boat'
p21
sI19
S'apple'
p22
sI20
S'sheep'
p23
sI21
S'horse'
p24
sI22
S'giraffe'
p25
sI23
S'tv'
p26
sI24
S'stop_sign'
p27
sI25
S'toaster'
p28
sI26
S'bowl'
p29
sI27
S'microwave'
p30
sI28
S'bench'
p31
sI29
S'fire_hydrant'
p32
sI30
S'book'
p33
sI31
S'elephant'
p34
sI32
S'orange'
p35
sI33
S'tie'
p36
sI34
S'banana'
p37
sI35
S'knife'
p38
sI36
S'pizza'
p39
sI37
S'fork'
p40
sI38
S'hair_drier'
p41
sI39
S'frisbee'
p42
sI40
S'umbrella'
p43
sI41
S'bottle'
p44
sI42
S'bus'
p45
sI43
S'zebra'
p46
sI44
S'bear'
p47
sI45
S'vase'
p48
sI46
S'toothbrush'
p49
sI47
S'spoon'
p50
sI48
S'train'
p51
sI49
S'airplane'
p52
sI50
S'potted_plant'
p53
sI51
S'handbag'
p54
sI52
S'cell_phone'
p55
sI53
S'traffic_light'
p56
sI54
S'bird'
p57
sI55
S'broccoli'
p58
sI56
S'refrigerator'
p59
sI57
S'laptop'
p60
sI58
S'remote'
p61
sI59
S'surfboard'
p62
sI60
S'cow'
p63
sI61
S'dining_table'
p64
sI62
S'hot_dog'
p65
sI63
S'car'
p66
sI64
S'cup'
p67
sI65
S'skateboard'
p68
sI66
S'dog'
p69
sI67
S'bed'
p70
sI68
S'cat'
p71
sI69
S'baseball_glove'
p72
sI70
S'carrot'
p73
sI71
S'truck'
p74
sI72
S'parking_meter'
p75
sI73
S'suitcase'
p76
sI74
S'cake'
p77
sI75
S'wine_glass'
p78
sI76
S'baseball_bat'
p79
sI77
S'backpack'
p80
sI78
S'sink'
p81
ssS'object2id'
p82
(dp83
g5
I2
sg3
I0
sg75
I72
sg6
I3
sg7
I4
sg8
I5
sg9
I6
sg73
I70
sg11
I8
sg42
I39
sg13
I10
sg14
I11
sg15
I12
sg16
I13
sg17
I14
sg31
I28
sg19
I16
sg52
I49
sg21
I18
sg22
I19
sg23
I20
sg24
I21
sg20
I17
sg26
I23
sg4
I1
sg80
I77
sg28
I25
sg29
I26
sg65
I62
sg30
I27
sg18
I15
sg33
I30
sg53
I50
sg34
I31
sg35
I32
sg36
I33
sg79
I76
sg37
I34
sg38
I35
sg39
I36
sg40
I37
sg12
I9
sg43
I40
sg78
I75
sg45
I42
sg41
I38
sg47
I44
sg48
I45
sg49
I46
sg50
I47
sg25
I22
sg81
I78
sg54
I51
sg64
I61
sg56
I53
sg58
I55
sg59
I56
sg60
I57
sg32
I29
sg61
I58
sg62
I59
sg63
I60
sg66
I63
sg71
I68
sg67
I64
sg68
I65
sg69
I66
sg70
I67
sg57
I54
sg72
I69
sg10
I7
sg51
I48
sg74
I71
sg44
I41
sg76
I73
sg77
I74
sg55
I52
sg27
I24
sg46
I43
ss.