(lp0
I5847
aI19750
aI17078
aI6041
aI12259
aI14418
aI19600
aI22997
aI5332
aI4457
aI24035
aI20663
aI10907
aI10358
aI22326
aI7373
aI1626
aI18389
aI14556
aI8507
aI20244
aI7094
aI22860
aI23688
aI1637
aI1513
aI19188
aI9403
aI14880
aI5432
aI22663
aI2577
aI148
aI23164
aI19164
aI12191
aI4489
aI2898
aI11764
aI6037
aI12886
aI4358
aI17132
aI7265
aI8753
aI5753
aI18683
aI9821
aI18565
aI11262
aI20639
aI20994
aI39
aI7792
aI18174
aI23858
aI22294
aI3527
aI4093
aI19576
aI2022
aI5939
aI2873
aI6692
aI1884
aI14093
aI3605
aI22902
aI2834
aI10993
aI11874
aI23172
aI4544
aI2131
aI2788
aI10839
aI19908
aI23539
aI4571
aI11248
aI7509
aI9490
aI9790
aI13991
aI5091
aI3010
aI6102
aI6274
aI19223
aI19906
aI15068
aI2065
aI3875
aI11956
aI5209
aI18774
aI592
aI2174
aI21634
aI12997
aI11387
aI4360
aI19803
aI22861
aI19703
aI5795
aI9439
aI16588
aI156
aI22808
aI18399
aI3667
aI15996
aI20058
aI8643
aI16946
aI18806
aI17596
aI9279
aI19106
aI14916
aI2172
aI4253
aI12733
aI15911
aI13021
aI23915
aI10704
aI7005
aI5621
aI2205
aI11424
aI23409
aI225
aI5421
aI13718
aI14595
aI11922
aI3693
aI20659
aI16033
aI19434
aI2760
aI10503
aI16902
aI16220
aI21982
aI19949
aI5504
aI24018
aI5451
aI4476
aI2424
aI209
aI16200
aI1265
aI18314
aI12773
aI2137
aI15737
aI2891
aI24140
aI11746
aI6386
aI3541
aI21711
aI11426
aI22952
aI12220
aI2920
aI3559
aI19120
aI9657
aI17861
aI12217
aI1822
aI4570
aI21584
aI15547
aI16188
aI16837
aI23280
aI23630
aI20341
aI12341
aI16603
aI12965
aI13370
aI20478
aI4651
aI5258
aI13821
aI6718
aI22710
aI4727
aI8637
aI19725
aI11820
aI18176
aI8457
aI17000
aI18687
aI11108
aI18750
aI14539
aI18831
aI17284
aI12947
aI19623
aI9007
aI11392
aI2480
aI20454
aI8496
aI5661
aI16105
aI11013
aI23269
aI9119
aI7369
aI801
aI575
aI22153
aI6841
aI16681
aI19046
aI11488
aI9188
aI9424
aI24038
aI4291
aI13716
aI17127
aI20817
aI5409
aI5353
aI22767
aI955
aI23070
aI1906
aI13041
aI19480
aI14371
aI1290
aI21443
aI6732
aI22359
aI21650
aI1539
aI21714
aI9330
aI14895
aI11220
aI18608
aI24015
aI21421
aI5382
aI23897
aI8647
aI7308
aI4751
aI6165
aI5985
aI1919
aI3892
aI12430
aI13281
aI13545
aI1132
aI9323
aI10986
aI23842
aI15026
aI14164
aI22697
aI3792
aI4249
aI2612
aI14719
aI13817
aI5531
aI17260
aI22229
aI17589
aI1800
aI10030
aI2941
aI17908
aI5309
aI12439
aI12113
aI17872
aI21280
aI16403
aI9865
aI9887
aI11920
aI16825
aI845
aI6748
aI12412
aI11946
aI2093
aI9320
aI12659
aI16703
aI18098
aI9069
aI19369
aI5373
aI19663
aI20250
aI13691
aI11838
aI4187
aI19089
aI20711
aI23993
aI7596
aI16422
aI3291
aI6370
aI26
aI21870
aI10545
aI4989
aI16622
aI11034
aI17533
aI19506
aI11541
aI5056
aI6127
aI6904
aI17299
aI18449
aI10792
aI1437
aI18606
aI15541
aI19593
aI3721
aI1491
aI21837
aI368
aI18276
aI4056
aI13989
aI6098
aI4759
aI10268
aI164
aI679
aI5372
aI20904
aI11186
aI17673
aI15868
aI12230
aI20774
aI8005
aI7311
aI15873
aI3537
aI10655
aI6397
aI11964
aI14167
aI5547
aI9398
aI3696
aI8604
aI21614
aI1222
aI22366
aI7740
aI10806
aI16651
aI10145
aI13594
aI8500
aI6061
aI17619
aI7391
aI3228
aI6358
aI5213
aI16035
aI13845
aI5844
aI13528
aI514
aI10244
aI4266
aI17892
aI9434
aI18057
aI20412
aI18515
aI5154
aI11623
aI1590
aI18238
aI16019
aI9812
aI20274
aI21620
aI15649
aI4182
aI8725
aI9075
aI5341
aI1810
aI5045
aI14710
aI4604
aI21230
aI21015
aI2628
aI11567
aI16477
aI19375
aI13748
aI2604
aI24254
aI15142
aI9758
aI3459
aI19927
aI22151
aI23289
aI14798
aI2414
aI19753
aI13190
aI425
aI11492
aI18771
aI16773
aI21120
aI2060
aI708
aI16533
aI23827
aI24050
aI4958
aI6034
aI13180
aI23076
aI20366
aI16468
aI21396
aI24296
aI13037
aI7465
aI5097
aI17159
aI9612
aI8214
aI1703
aI1200
aI975
aI543
aI12644
aI21257
aI3453
aI536
aI17647
aI20845
aI24228
aI1602
aI23848
aI13050
aI12654
aI7521
aI15716
aI23107
aI6744
aI8938
aI12365
aI11491
aI11507
aI16124
aI3159
aI6814
aI15867
aI15770
aI22507
aI20417
aI10949
aI18318
aI13755
aI14112
aI11797
aI19172
aI2716
aI12543
aI13901
aI23575
aI14735
aI4894
aI4241
aI2554
aI248
aI10340
aI7753
aI12969
aI13777
aI16967
aI4144
aI17393
aI4045
aI5771
aI23781
aI19349
aI957
aI14305
aI6473
aI2200
aI3274
aI21642
aI10973
aI4165
aI19468
aI1407
aI13734
aI17556
aI10934
aI6578
aI6915
aI14746
aI20133
aI13747
aI2076
aI16756
aI3175
aI7508
aI22737
aI6404
aI23906
aI14384
aI14324
aI13965
aI23556
aI22189
aI2500
aI3299
aI10543
aI10495
aI8547
aI21883
aI20732
aI16089
aI14758
aI9726
aI7732
aI18043
aI10296
aI16895
aI7120
aI4115
aI14560
aI3896
aI7939
aI11232
aI10723
aI14837
aI18634
aI19457
aI24069
aI7456
aI10141
aI8793
aI9720
aI10206
aI10519
aI8225
aI8929
aI880
aI14706
aI6019
aI10866
aI20676
aI1793
aI8095
aI21524
aI24045
aI22763
aI23235
aI6092
aI17154
aI14281
aI22890
aI17201
aI22666
aI19720
aI11508
aI19606
aI10236
aI15856
aI3835
aI4475
aI17701
aI7626
aI17837
aI2040
aI3166
aI15510
aI7323
aI14143
aI21894
aI6062
aI8869
aI19271
aI18681
aI21759
aI21693
aI5029
aI9127
aI23600
aI8108
aI8322
aI12265
aI13125
aI23179
aI11408
aI11334
aI9521
aI2212
aI16561
aI14173
aI729
aI7381
aI5963
aI19572
aI23605
aI18698
aI18097
aI16439
aI18906
aI9459
aI16741
aI8145
aI17574
aI19118
aI22148
aI20598
aI23031
aI5392
aI13659
aI10085
aI8332
aI3568
aI13320
aI19756
aI14842
aI12434
aI23345
aI18183
aI23484
aI16921
aI4415
aI15313
aI21941
aI14996
aI473
aI10893
aI19056
aI15511
aI13972
aI20393
aI17568
aI10430
aI19461
aI443
aI4000
aI2603
aI23087
aI4784
aI20556
aI2255
aI17808
aI8612
aI17457
aI20636
aI23774
aI22493
aI4355
aI20265
aI20150
aI12390
aI3132
aI2852
aI7841
aI6615
aI11419
aI11818
aI6682
aI22914
aI11188
aI19195
aI22485
aI18651
aI20352
aI10532
aI19475
aI15741
aI18425
aI11374
aI19035
aI21827
aI19522
aI7864
aI14132
aI1253
aI23961
aI15191
aI14858
aI12909
aI14576
aI7881
aI12306
aI20363
aI95
aI11858
aI5065
aI12907
aI9322
aI6741
aI13167
aI14110
aI12381
aI3458
aI7099
aI6291
aI2906
aI11552
aI896
aI5190
aI7425
aI13621
aI21723
aI10106
aI1761
aI10794
aI6836
aI23831
aI23292
aI19140
aI9295
aI11219
aI24280
aI14938
aI19420
aI2677
aI21150
aI13405
aI24154
aI3139
aI7542
aI11577
aI17325
aI21952
aI2770
aI11885
aI9438
aI22248
aI13139
aI13663
aI20434
aI2059
aI7830
aI20232
aI14280
aI16664
aI12493
aI4716
aI15257
aI8772
aI1153
aI20776
aI8692
aI11273
aI17500
aI14511
aI486
aI4850
aI2520
aI22208
aI15378
aI7655
aI15298
aI21502
aI3209
aI61
aI10042
aI22673
aI1823
aI8104
aI462
aI21007
aI1905
aI10364
aI11027
aI4184
aI23995
aI22781
aI1839
aI5074
aI10433
aI6570
aI4342
aI14863
aI3788
aI6128
aI22983
aI17449
aI9735
aI17833
aI17075
aI12576
aI15642
aI19287
aI10293
aI19546
aI23884
aI17934
aI9904
aI20343
aI18123
aI8098
aI1386
aI6052
aI20030
aI14548
aI9293
aI17274
aI9156
aI22948
aI8849
aI20593
aI671
aI5099
aI10290
aI964
aI283
aI348
aI1314
aI19489
aI10633
aI13033
aI7419
aI13220
aI3014
aI18125
aI9342
aI9186
aI20497
aI11640
aI8148
aI4828
aI6956
aI17857
aI20215
aI15657
aI10541
aI15159
aI16538
aI10544
aI17358
aI8052
aI7896
aI15326
aI16928
aI22986
aI16805
aI5604
aI22649
aI21201
aI4119
aI4511
aI9234
aI5267
aI7779
aI8471
aI15525
aI7496
aI1328
aI6978
aI16132
aI3363
aI17848
aI830
aI3586
aI357
aI971
aI17603
aI3364
aI16447
aI5490
aI12142
aI12338
aI12914
aI7759
aI790
aI6950
aI17805
aI23616
aI16399
aI6439
aI8494
aI13008
aI6650
aI13842
aI2169
aI343
aI11073
aI23663
aI110
aI4018
aI447
aI16396
aI4670
aI21684
aI20864
aI12740
aI2410
aI22160
aI3490
aI9552
aI14544
aI10179
aI3484
aI3373
aI17777
aI4765
aI20407
aI9935
aI15568
aI772
aI2034
aI5071
aI12641
aI15631
aI9314
aI22454
aI21292
aI10860
aI3829
aI22257
aI196
aI6146
aI15847
aI21451
aI22923
aI12887
aI13551
aI753
aI12546
aI6823
aI2545
aI3457
aI4745
aI6217
aI6086
aI9423
aI11663
aI3129
aI7124
aI22276
aI2352
aI14890
aI5642
aI3296
aI12154
aI24
aI1240
aI4920
aI4085
aI20900
aI13416
aI17436
aI4380
aI16296
aI269
aI17726
aI8855
aI11255
aI6407
aI22213
aI7152
aI22939
aI13147
aI7582
aI18575
aI10994
aI22707
aI9756
aI2452
aI1163
aI14439
aI18311
aI2098
aI22047
aI20451
aI3569
aI11702
aI11365
aI19746
aI7865
aI22126
aI19161
aI2366
aI19266
aI19929
aI9237
aI3863
aI6366
aI1322
aI4737
aI8325
aI4215
aI4838
aI2919
aI8291
aI9387
aI23658
aI16973
aI21699
aI3497
aI15051
aI4619
aI20421
aI22652
aI9048
aI14323
aI6336
aI2405
aI24021
aI11521
aI346
aI20819
aI1297
aI10673
aI997
aI12492
aI17441
aI23257
aI9631
aI23284
aI2864
aI18938
aI2867
aI4404
aI2844
aI18786
aI20110
aI6316
aI22725
aI9945
aI9914
aI17844
aI14813
aI5322
aI3309
aI1126
aI14055
aI9753
aI14043
aI12214
aI18633
aI5646
aI12363
aI173
aI5380
aI14797
aI1315
aI16949
aI13406
aI9977
aI19673
aI332
aI20576
aI14139
aI8054
aI13725
aI7741
aI16171
aI15542
aI7665
aI8524
aI12100
aI15346
aI3677
aI6518
aI2766
aI23275
aI2140
aI18763
aI21896
aI7721
aI5413
aI16606
aI4563
aI8878
aI14780
aI20868
aI931
aI7979
aI17709
aI2798
aI15612
aI23406
aI18240
aI21247
aI18121
aI16275
aI20749
aI3456
aI13673
aI11444
aI9303
aI17834
aI17995
aI13228
aI22627
aI22834
aI14133
aI15170
aI8991
aI24033
aI22093
aI19709
aI9374
aI19360
aI6078
aI3198
aI10373
aI18586
aI1387
aI6887
aI9846
aI17960
aI12245
aI22095
aI12547
aI7385
aI4021
aI662
aI5151
aI12837
aI16850
aI4648
aI10825
aI4982
aI20040
aI4363
aI588
aI12517
aI9361
aI10049
aI8724
aI24071
aI7001
aI21344
aI13474
aI8920
aI22835
aI19421
aI7699
aI19490
aI22755
aI18101
aI18467
aI24103
aI10369
aI8146
aI18446
aI19239
aI17488
aI862
aI4493
aI21936
aI16242
aI19380
aI21940
aI20193
aI8517
aI9021
aI22158
aI11709
aI16620
aI10330
aI21367
aI16896
aI15757
aI16998
aI14733
aI18844
aI4052
aI8917
aI15501
aI19722
aI11431
aI15189
aI12976
aI13827
aI21327
aI21705
aI15505
aI14420
aI21005
aI17883
aI23439
aI23166
aI20642
aI8697
aI11467
aI9755
aI23382
aI3993
aI1383
aI9775
aI21386
aI24005
aI6405
aI19245
aI10241
aI12117
aI19543
aI311
aI22010
aI13678
aI19412
aI2934
aI4386
aI5386
aI1192
aI5383
aI21419
aI23856
aI9465
aI14644
aI14196
aI19309
aI6629
aI15172
aI5312
aI14696
aI12554
aI11025
aI6031
aI11809
aI13256
aI23261
aI4422
aI18811
aI159
aI16551
aI22024
aI19832
aI22256
aI9913
aI22812
aI7563
aI23250
aI5219
aI17772
aI14136
aI7959
aI10863
aI22620
aI18255
aI7486
aI8657
aI12769
aI21750
aI3113
aI21248
aI24169
aI17200
aI9710
aI16240
aI14094
aI5223
aI11684
aI20507
aI1972
aI18102
aI18874
aI15864
aI17482
aI12831
aI13733
aI15460
aI8504
aI21825
aI9486
aI16474
aI4800
aI10836
aI10916
aI22477
aI22585
aI11592
aI615
aI16892
aI15147
aI15126
aI24098
aI6981
aI17798
aI6514
aI21147
aI22529
aI20237
aI18693
aI8446
aI19951
aI7051
aI23330
aI17982
aI11493
aI1686
aI85
aI21732
aI14835
aI5315
aI9263
aI17765
aI14649
aI11341
aI22951
aI16443
aI18642
aI8912
aI16604
aI10868
aI8889
aI8853
aI17976
aI4911
aI10037
aI9949
aI3090
aI8475
aI23469
aI17558
aI1410
aI15681
aI10666
aI7656
aI10277
aI2377
aI19603
aI2176
aI19887
aI12480
aI9513
aI172
aI19323
aI17929
aI13732
aI14936
aI3935
aI22317
aI16499
aI22422
aI5011
aI17341
aI14183
aI17193
aI21082
aI9864
aI17582
aI23221
aI22740
aI5319
aI12823
aI13819
aI13689
aI12463
aI17470
aI8821
aI9245
aI10716
aI4605
aI14571
aI3689
aI23868
aI785
aI22235
aI300
aI21258
aI19587
aI22380
aI384
aI14505
aI11850
aI23169
aI21308
aI6681
aI6083
aI16285
aI23256
aI17595
aI19905
aI14870
aI16149
aI21170
aI17311
aI4935
aI17440
aI6384
aI12758
aI17058
aI3594
aI15610
aI23404
aI18972
aI10033
aI22680
aI8744
aI20342
aI6966
aI23435
aI3103
aI18998
aI13319
aI11413
aI1391
aI15840
aI14581
aI17386
aI24176
aI17786
aI9299
aI24270
aI8656
aI7350
aI12688
aI7185
aI21116
aI14485
aI10506
aI2052
aI6624
aI18626
aI16454
aI551
aI6214
aI18299
aI22698
aI1213
aI18473
aI15561
aI19376
aI10574
aI18909
aI21456
aI22694
aI14555
aI21030
aI19275
aI2276
aI3057
aI13682
aI15938
aI19250
aI11934
aI5047
aI18674
aI7540
aI18214
aI10567
aI20949
aI16765
aI1943
aI13061
aI7662
aI10015
aI6018
aI19736
aI6025
aI22534
aI12681
aI19876
aI24097
aI10785
aI1979
aI6193
aI20565
aI4807
aI9412
aI8131
aI20534
aI1868
aI8720
aI6450
aI1221
aI437
aI21106
aI23592
aI6420
aI10539
aI20006
aI1795
aI19414
aI14308
aI10174
aI18036
aI9349
aI11469
aI15719
aI15436
aI19996
aI2746
aI20379
aI11527
aI7652
aI5756
aI16835
aI14993
aI10644
aI20934
aI5098
aI12967
aI8473
aI3359
aI1262
aI15098
aI16353
aI2742
aI4101
aI20151
aI6180
aI7457
aI23999
aI3859
aI8419
aI13216
aI6080
aI15236
aI3158
aI17826
aI6824
aI5142
aI2454
aI8953
aI3995
aI15491
aI13578
aI12296
aI20788
aI973
aI1125
aI5953
aI3773
aI7354
aI23479
aI1419
aI16142
aI17967
aI16264
aI16394
aI15916
aI19983
aI22307
aI15162
aI19735
aI1735
aI22029
aI11168
aI125
aI18617
aI19734
aI21553
aI17387
aI5750
aI18429
aI22678
aI16568
aI10757
aI14035
aI7636
aI10126
aI15195
aI10634
aI21426
aI8294
aI19814
aI22268
aI22564
aI18716
aI17584
aI17577
aI1123
aI14193
aI21020
aI20139
aI22732
aI14425
aI15692
aI2245
aI22677
aI10959
aI21182
aI15387
aI5205
aI21657
aI19933
aI14871
aI4131
aI7695
aI14784
aI4888
aI18093
aI14737
aI5635
aI6257
aI4084
aI15924
aI6847
aI23728
aI32
aI6713
aI20432
aI13386
aI4660
aI23204
aI7633
aI23122
aI22591
aI16723
aI9453
aI1808
aI11826
aI7017
aI7654
aI1026
aI12764
aI15153
aI3532
aI20697
aI17609
aI23387
aI13023
aI23935
aI14861
aI8020
aI20833
aI6381
aI8794
aI22752
aI19124
aI19465
aI4748
aI19918
aI20455
aI21652
aI2025
aI5742
aI23113
aI24273
aI15059
aI4798
aI18241
aI7331
aI6767
aI10398
aI2435
aI17762
aI22757
aI4066
aI12697
aI10798
aI22001
aI7163
aI9332
aI20655
aI1578
aI5978
aI20255
aI7588
aI16548
aI8379
aI7511
aI11480
aI1986
aI21552
aI185
aI4967
aI18612
aI15834
aI3657
aI15252
aI9722
aI5495
aI5371
aI3963
aI1780
aI10620
aI16818
aI12857
aI1399
aI15084
aI22119
aI18416
aI3574
aI14864
aI18284
aI13029
aI7715
aI4609
aI5019
aI11852
aI9906
aI7995
aI19730
aI6803
aI365
aI17109
aI17519
aI21276
aI19187
aI7253
aI14817
aI14021
aI18249
aI778
aI14406
aI2296
aI23816
aI14939
aI6798
aI23809
aI16934
aI10004
aI18340
aI3056
aI10419
aI4198
aI10578
aI13093
aI7795
aI16335
aI4586
aI297
aI22009
aI5961
aI18148
aI13675
aI908
aI22212
aI22624
aI6693
aI7941
aI7606
aI3879
aI15030
aI9264
aI4810
aI20033
aI20842
aI2973
aI17745
aI10352
aI14159
aI20175
aI17478
aI13317
aI10592
aI3700
aI10558
aI18212
aI24043
aI2360
aI9392
aI6125
aI10291
aI4501
aI1304
aI3954
aI8706
aI3124
aI20540
aI569
aI18765
aI16614
aI19029
aI5476
aI9238
aI9478
aI11358
aI1495
aI14484
aI9978
aI15006
aI3095
aI1172
aI2579
aI3706
aI5336
aI18644
aI19670
aI22802
aI10776
aI5914
aI4070
aI1372
aI10323
aI10735
aI6620
aI14337
aI23992
aI5770
aI22592
aI10073
aI22336
aI13309
aI15124
aI1748
aI8240
aI23696
aI12482
aI20484
aI20987
aI12183
aI15300
aI14300
aI21776
aI19787
aI9771
aI10829
aI19284
aI2193
aI19824
aI16380
aI19225
aI16113
aI3494
aI13217
aI2644
aI23695
aI17942
aI9227
aI10000
aI23493
aI11144
aI1873
aI8002
aI5454
aI5279
aI11871
aI10760
aI9652
aI10123
aI19499
aI17890
aI5037
aI24194
aI15245
aI20728
aI20430
aI647
aI14985
aI20211
aI16497
aI23692
aI21475
aI2024
aI15613
aI4135
aI9042
aI133
aI21908
aI1711
aI12475
aI16025
aI10247
aI18696
aI1985
aI8961
aI19947
aI7069
aI10114
aI1038
aI7611
aI14489
aI5194
aI22074
aI2036
aI16670
aI3474
aI11510
aI7130
aI815
aI7293
aI14029
aI14588
aI21101
aI21057
aI23962
aI12751
aI12726
aI15507
aI23905
aI1244
aI7004
aI19661
aI2197
aI12053
aI12865
aI13896
aI20538
aI9748
aI1520
aI7697
aI5545
aI4688
aI8827
aI350
aI6998
aI2396
aI24207
aI21744
aI13094
aI18927
aI2662
aI10926
aI19635
aI6129
aI18677
aI14430
aI19888
aI21709
aI4513
aI11022
aI897
aI6484
aI23649
aI18667
aI23748
aI8134
aI12048
aI7671
aI5032
aI13324
aI23963
aI19858
aI3055
aI3368
aI4391
aI1369
aI16715
aI18550
aI4979
aI5508
aI1375
aI18905
aI8581
aI16332
aI11855
aI15795
aI21179
aI19995
aI8862
aI14453
aI5405
aI22086
aI12446
aI11573
aI10279
aI15765
aI20704
aI611
aI5562
aI15423
aI4579
aI3872
aI12571
aI7922
aI7233
aI11866
aI7890
aI6337
aI11479
aI5468
aI13229
aI1647
aI1900
aI423
aI13100
aI3975
aI2885
aI10413
aI563
aI13346
aI22674
aI13299
aI11632
aI6296
aI19646
aI24288
aI9848
aI20876
aI8601
aI9896
aI7053
aI395
aI14488
aI15949
aI10159
aI7217
aI9934
aI4965
aI8464
aI6932
aI6889
aI21500
aI3659
aI21570
aI8023
aI6500
aI19254
aI17598
aI4412
aI21192
aI10679
aI9942
aI14131
aI1790
aI13314
aI19549
aI9530
aI21659
aI6568
aI19117
aI14161
aI1652
aI24118
aI21898
aI10777
aI7815
aI2136
aI9800
aI2297
aI20804
aI6838
aI9309
aI4985
aI3799
aI13931
aI16465
aI21181
aI8867
aI2971
aI10618
aI16448
aI16677
aI11320
aI15216
aI6535
aI16075
aI23541
aI10903
aI22584
aI16265
aI3728
aI10764
aI17590
aI476
aI23708
aI22476
aI18413
aI9144
aI14598
aI5224
aI23646
aI5202
aI13092
aI16060
aI7104
aI12450
aI313
aI16796
aI7886
aI9334
aI22693
aI250
aI21644
aI11267
aI21722
aI1633
aI11875
aI18549
aI22327
aI5923
aI23139
aI9878
aI22883
aI21830
aI7498
aI12087
aI5295
aI12440
aI9281
aI19582
aI11650
aI10243
aI7586
aI9058
aI20107
aI7018
aI23823
aI2800
aI18733
aI23249
aI23680
aI21356
aI17978
aI23675
aI4086
aI9220
aI16898
aI15697
aI22191
aI16437
aI15123
aI7892
aI19708
aI8205
aI12679
aI15192
aI11061
aI11234
aI14378
aI22690
aI4917
aI4678
aI4712
aI2171
aI16137
aI10301
aI17839
aI18401
aI15475
aI13945
aI13135
aI14211
aI9056
aI23482
aI921
aI7196
aI16731
aI16958
aI20667
aI12872
aI11554
aI15104
aI21114
aI403
aI3881
aI17868
aI3645
aI401
aI22721
aI3321
aI10795
aI22278
aI12358
aI8754
aI9219
aI23363
aI15210
aI16501
aI11427
aI5848
aI18168
aI24181
aI9312
aI6464
aI5632
aI22647
aI10386
aI15148
aI14515
aI20692
aI3895
aI18469
aI22298
aI16841
aI17326
aI14437
aI23586
aI5541
aI442
aI22070
aI23662
aI12873
aI13648
aI10198
aI14498
aI13811
aI14095
aI12181
aI6178
aI19481
aI18252
aI18388
aI14321
aI21751
aI1177
aI23317
aI23002
aI14796
aI8998
aI5148
aI96
aI4498
aI24174
aI7397
aI6628
aI1669
aI22691
aI11235
aI18788
aI19389
aI14614
aI22218
aI15824
aI7042
aI1384
aI16173
aI22388
aI13683
aI10692
aI8448
aI1062
aI14276
aI16340
aI292
aI20613
aI21489
aI10378
aI16256
aI7068
aI10756
aI13962
aI2851
aI15122
aI14427
aI5582
aI23922
aI22832
aI4631
aI4835
aI12868
aI1549
aI18593
aI6171
aI21090
aI7649
aI21929
aI9999
aI21607
aI4799
aI15443
aI15942
aI22474
aI8618
aI13837
aI1570
aI19404
aI4125
aI141
aI18955
aI13855
aI19055
aI21488
aI9830
aI631
aI13137
aI15572
aI4034
aI12474
aI23976
aI9354
aI1294
aI3415
aI11834
aI21328
aI10494
aI5546
aI2048
aI16852
aI1460
aI17847
aI2464
aI4327
aI17646
aI9995
aI13164
aI8102
aI922
aI2703
aI21265
aI18038
aI5608
aI4450
aI6317
aI5469
aI19331
aI15517
aI5452
aI14956
aI13677
aI11559
aI5388
aI21885
aI19818
aI15154
aI12936
aI15469
aI6658
aI6846
aI1263
aI13766
aI12647
aI12171
aI10782
aI19864
aI12184
aI8094
aI23385
aI22458
aI14020
aI21697
aI3225
aI23610
aI23352
aI12683
aI5834
aI21368
aI21274
aI21511
aI1457
aI2123
aI15003
aI21658
aI22224
aI9607
aI15472
aI7358
aI20727
aI2535
aI4847
aI4626
aI4824
aI20838
aI12754
aI8807
aI21098
aI18133
aI22338
aI21926
aI4376
aI10793
aI15913
aI5814
aI20798
aI11012
aI7448
aI18387
aI4774
aI17370
aI5716
aI22395
aI21484
aI12981
aI12485
aI10246
aI17615
aI11099
aI13285
aI18893
aI17632
aI4108
aI7251
aI18378
aI1106
aI19285
aI15665
aI22266
aI21432
aI15672
aI841
aI20609
aI8880
aI9154
aI24287
aI15105
aI5568
aI4466
aI17062
aI15133
aI17380
aI16520
aI14088
aI1136
aI18976
aI687
aI23116
aI12527
aI14121
aI13345
aI22468
aI7344
aI3512
aI4443
aI13410
aI7249
aI20699
aI18585
aI11604
aI21562
aI18372
aI24126
aI23596
aI4954
aI5653
aI11143
aI18513
aI22028
aI8394
aI16610
aI12983
aI21807
aI8119
aI2572
aI17164
aI14199
aI11128
aI3855
aI6215
aI20809
aI4123
aI3923
aI624
aI20768
aI1535
aI6531
aI16688
aI13763
aI11120
aI16086
aI10454
aI9151
aI16444
aI17633
aI7286
aI10240
aI21383
aI16713
aI748
aI4482
aI3948
aI14738
aI2665
aI20682
aI22482
aI20346
aI14169
aI4154
aI10992
aI3743
aI116
aI11172
aI4300
aI9704
aI5878
aI11750
aI2135
aI18055
aI12316
aI16045
aI14642
aI19021
aI129
aI6457
aI17071
aI21449
aI17181
aI12763
aI20144
aI17081
aI2757
aI15318
aI16043
aI10562
aI21667
aI4278
aI1150
aI7178
aI17870
aI11770
aI21318
aI2585
aI20615
aI4171
aI14666
aI7898
aI13820
aI699
aI20712
aI21775
aI2518
aI12494
aI22261
aI20583
aI3690
aI2436
aI19005
aI14309
aI15223
aI9562
aI17313
aI11900
aI17150
aI20541
aI14102
aI4859
aI23128
aI2639
aI14206
aI1267
aI10853
aI19397
aI21197
aI18780
aI15810
aI22671
aI15992
aI15081
aI9520
aI21832
aI717
aI23155
aI23334
aI8452
aI12233
aI92
aI10338
aI11776
aI19028
aI11422
aI5403
aI20320
aI2589
aI18766
aI20264
aI3065
aI18699
aI4454
aI10890
aI1860
aI18995
aI5648
aI21023
aI4006
aI24039
aI2218
aI18278
aI9883
aI23055
aI8823
aI8890
aI12067
aI14245
aI16924
aI6890
aI12989
aI15830
aI20354
aI17714
aI16730
aI4408
aI83
aI7211
aI19022
aI2775
aI13698
aI150
aI7854
aI18900
aI13530
aI18543
aI5837
aI4657
aI2900
aI13225
aI14892
aI16208
aI8018
aI22016
aI7256
aI14141
aI11679
aI17002
aI23137
aI15786
aI14810
aI11109
aI14027
aI1379
aI10773
aI13431
aI5034
aI11451
aI5348
aI6559
aI11844
aI2939
aI15409
aI17671
aI17525
aI3861
aI14625
aI13767
aI6778
aI6743
aI6465
aI10414
aI3007
aI14843
aI4020
aI10117
aI11463
aI5294
aI16453
aI14638
aI18506
aI9408
aI10706
aI305
aI2673
aI5867
aI3066
aI18872
aI2816
aI6060
aI1413
aI7966
aI15628
aI2675
aI18720
aI12253
aI22738
aI20474
aI16184
aI15512
aI6602
aI20939
aI7353
aI16953
aI20869
aI15883
aI20755
aI22722
aI24067
aI15299
aI19846
aI11800
aI2809
aI12094
aI17417
aI12502
aI22428
aI4246
aI8896
aI24124
aI6849
aI967
aI4618
aI10397
aI7661
aI3681
aI17497
aI17565
aI9970
aI1961
aI16517
aI11981
aI12500
aI13786
aI14215
aI11090
aI504
aI8163
aI7037
aI2386
aI11145
aI15301
aI23735
aI22927
aI21855
aI3597
aI22250
aI5254
aI21415
aI1239
aI21534
aI18491
aI20376
aI11182
aI2524
aI12538
aI2151
aI5614
aI13453
aI15662
aI3767
aI4717
aI16427
aI20802
aI17723
aI1786
aI4096
aI1636
aI18948
aI19696
aI16891
aI8832
aI16186
aI15804
aI2406
aI16498
aI10732
aI15979
aI21159
aI361
aI6108
aI5860
aI22192
aI2463
aI8922
aI488
aI23656
aI726
aI8036
aI2542
aI23959
aI18160
aI17012
aI3885
aI13455
aI16544
aI15846
aI4514
aI566
aI6475
aI1811
aI12123
aI4046
aI45
aI9929
aI23183
aI16260
aI4039
aI17710
aI13796
aI20426
aI3748
aI1519
aI21510
aI23528
aI21270
aI7333
aI17911
aI15762
aI8276
aI4576
aI9396
aI5474
aI7244
aI23131
aI16066
aI14899
aI11494
aI16512
aI10580
aI11095
aI7962
aI3176
aI2372
aI15441
aI3600
aI562
aI2991
aI20831
aI16799
aI15727
aI7417
aI11695
aI19740
aI9206
aI23839
aI19718
aI13653
aI18170
aI12686
aI11547
aI6204
aI6716
aI18866
aI6893
aI3870
aI22075
aI694
aI4043
aI1774
aI15323
aI21494
aI4042
aI13293
aI22524
aI5889
aI17651
aI9922
aI12929
aI17207
aI22251
aI5755
aI15611
aI19898
aI13275
aI12642
aI2929
aI2105
aI1373
aI12614
aI310
aI12292
aI21937
aI2434
aI12691
aI20042
aI1230
aI24245
aI11286
aI5247
aI3567
aI6354
aI6015
aI19383
aI23234
aI22603
aI18332
aI11150
aI20736
aI7906
aI21086
aI3072
aI18127
aI18640
aI3772
aI11117
aI2555
aI18979
aI6066
aI5701
aI8027
aI5408
aI20813
aI16337
aI20967
aI8307
aI9523
aI23465
aI18072
aI11088
aI2935
aI8910
aI18140
aI17238
aI12239
aI4306
aI17266
aI23920
aI14057
aI14587
aI4950
aI23054
aI9534
aI7710
aI8791
aI7154
aI20016
aI12285
aI5195
aI7631
aI4673
aI10139
aI7737
aI19754
aI1227
aI19113
aI3878
aI2993
aI4948
aI14951
aI21133
aI12428
aI8372
aI7193
aI11556
aI6191
aI4594
aI12057
aI10315
aI8430
aI11335
aI1307
aI9084
aI7619
aI3577
aI1140
aI2830
aI4274
aI4525
aI10319
aI14529
aI9535
aI11925
aI14991
aI3525
aI21878
aI2178
aI21400
aI14988
aI19625
aI11993
aI11904
aI2286
aI4876
aI8570
aI18817
aI12467
aI9867
aI16619
aI22128
aI1692
aI5014
aI9539
aI22058
aI6797
aI18855
aI21381
aI15564
aI15520
aI19741
aI17694
aI15410
aI2389
aI1588
aI4904
aI770
aI23080
aI950
aI1932
aI11048
aI21794
aI674
aI8491
aI16887
aI19464
aI549
aI12435
aI3035
aI1617
aI11000
aI5104
aI9810
aI9660
aI2240
aI12079
aI19109
aI20267
aI10815
aI5567
aI20308
aI22979
aI2987
aI3837
aI12584
aI1030
aI9187
aI13226
aI6454
aI16020
aI15708
aI8708
aI22201
aI1011
aI9894
aI10672
aI15048
aI1615
aI14469
aI5143
aI6971
aI7252
aI5707
aI13263
aI14343
aI21010
aI13680
aI20940
aI11051
aI11107
aI16334
aI4285
aI17914
aI23660
aI5597
aI20999
aI23789
aI11501
aI11611
aI13654
aI2736
aI2988
aI12204
aI12961
aI13846
aI8584
aI11716
aI16383
aI10203
aI3275
aI15400
aI18572
aI16262
aI19862
aI16828
aI23040
aI4330
aI11503
aI3446
aI10969
aI19607
aI22499
aI7884
aI14715
aI11008
aI20269
aI1043
aI2940
aI19619
aI3647
aI19838
aI7797
aI3833
aI13606
aI4614
aI12391
aI6351
aI18659
aI20766
aI2711
aI8654
aI11036
aI2147
aI14227
aI4038
aI11436
aI5272
aI22367
aI10832
aI17778
aI6947
aI16523
aI7622
aI8026
aI11804
aI4053
aI6011
aI15597
aI11151
aI13792
aI10658
aI11265
aI18840
aI21597
aI19507
aI2670
aI15496
aI20394
aI2381
aI8520
aI13036
aI11418
aI4091
aI14497
aI21439
aI3207
aI20691
aI6094
aI14917
aI11653
aI19650
aI18743
aI13953
aI13303
aI9095
aI2078
aI3623
aI23410
aI20093
aI22541
aI13213
aI19975
aI4442
aI16016
aI11329
aI1838
aI7927
aI15375
aI15970
aI10489
aI2691
aI2598
aI1084
aI16956
aI10029
aI20170
aI11941
aI8875
aI6290
aI3671
aI10840
aI14799
aI20440
aI21429
aI456
aI7585
aI10606
aI1746
aI5064
aI10680
aI20539
aI16698
aI22573
aI8277
aI16181
aI67
aI2593
aI6003
aI2904
aI7401
aI12409
aI23751
aI177
aI11996
aI19878
aI19555
aI1438
aI18877
aI11522
aI9579
aI9628
aI17684
aI19125
aI1162
aI19870
aI6521
aI14387
aI2822
aI21821
aI11371
aI1951
aI20494
aI18180
aI7033
aI14965
aI4137
aI18723
aI3783
aI2028
aI7889
aI4871
aI7559
aI3421
aI14270
aI14135
aI16442
aI4861
aI6081
aI18695
aI21626
aI31
aI11180
aI2277
aI23150
aI2713
aI3705
aI16082
aI11041
aI291
aI3017
aI5446
aI5008
aI14137
aI12103
aI14686
aI5974
aI15348
aI22360
aI14934
aI14948
aI8370
aI17247
aI24170
aI18587
aI16379
aI17715
aI3083
aI21922
aI23685
aI5320
aI23672
aI2303
aI23099
aI12027
aI9061
aI5794
aI16970
aI16774
aI6612
aI6871
aI2629
aI22222
aI3538
aI17893
aI5983
aI15089
aI11375
aI14234
aI12645
aI3300
aI4172
aI23795
aI1725
aI16586
aI6802
aI11631
aI13807
aI3996
aI19402
aI4480
aI23551
aI16415
aI21251
aI9494
aI15937
aI4083
aI6951
aI19851
aI5873
aI8628
aI2791
aI4733
aI15079
aI11909
aI20573
aI1068
aI397
aI17743
aI23239
aI7433
aI17183
aI11740
aI4728
aI4447
aI2997
aI1363
aI6527
aI8266
aI17427
aI9779
aI8003
aI5616
aI15626
aI18746
aI1845
aI5301
aI17843
aI1631
aI9992
aI8066
aI23036
aI19078
aI11710
aI6666
aI3602
aI839
aI6392
aI14673
aI19966
aI8905
aI10055
aI16298
aI1219
aI10302
aI18343
aI3411
aI8739
aI22547
aI8006
aI22562
aI6136
aI19240
aI20012
aI7612
aI18285
aI9104
aI1197
aI13574
aI21720
aI12569
aI19874
aI24258
aI19324
aI16363
aI5601
aI9788
aI8638
aI15319
aI16369
aI14698
aI6861
aI14476
aI21428
aI356
aI4763
aI19641
aI14665
aI21425
aI4667
aI20011
aI3940
aI7701
aI6051
aI15074
aI5599
aI8028
aI3094
aI4738
aI6390
aI16672
aI17643
aI22037
aI14995
aI3272
aI18447
aI6689
aI8151
aI1396
aI13450
aI12977
aI7778
aI142
aI2438
aI47
aI17490
aI11601
aI19371
aI18680
aI1151
aI741
aI12566
aI10486
aI20747
aI4639
aI1411
aI1638
aI98
aI6155
aI6124
aI4104
aI1440
aI12044
aI22038
aI21373
aI7593
aI8262
aI6304
aI21497
aI20115
aI15401
aI14385
aI5850
aI7670
aI4453
aI21226
aI11982
aI5626
aI2688
aI5760
aI2908
aI19444
aI7805
aI5891
aI10362
aI4578
aI18512
aI17990
aI9706
aI734
aI16502
aI19141
aI706
aI1689
aI9217
aI634
aI22973
aI12675
aI20077
aI8142
aI15966
aI3358
aI2534
aI18564
aI21453
aI6148
aI4110
aI11226
aI6156
aI20671
aI1922
aI3599
aI21902
aI11837
aI20578
aI22372
aI19082
aI15555
aI13707
aI22374
aI12331
aI8363
aI793
aI1589
aI7322
aI9122
aI8423
aI17897
aI3806
aI214
aI5001
aI6536
aI189
aI894
aI15789
aI3858
aI4228
aI20036
aI7393
aI8959
aI7267
aI19174
aI13934
aI19415
aI23892
aI15759
aI4387
aI8334
aI14846
aI9694
aI18056
aI22982
aI6205
aI15792
aI12693
aI14044
aI7241
aI5539
aI4625
aI6017
aI13624
aI15565
aI22807
aI1903
aI20577
aI13542
aI8611
aI22989
aI4209
aI3391
aI23655
aI23083
aI19970
aI3085
aI9046
aI165
aI11203
aI5812
aI20399
aI17760
aI14441
aI8560
aI21256
aI3851
aI7139
aI15004
aI13662
aI22056
aI4907
aI22569
aI23013
aI6349
aI1844
aI18986
aI22430
aI20160
aI7948
aI16856
aI1218
aI23936
aI8228
aI3039
aI19263
aI15971
aI5033
aI19941
aI14574
aI10
aI20316
aI23154
aI11688
aI3043
aI19382
aI17810
aI12840
aI14226
aI6344
aI17816
aI20179
aI14320
aI4512
aI6184
aI6606
aI4913
aI18063
aI12974
aI5146
aI3751
aI23891
aI960
aI24121
aI10344
aI8316
aI2475
aI8335
aI21739
aI10605
aI20654
aI22509
aI9100
aI12215
aI22308
aI10043
aI22630
aI18577
aI2006
aI21108
aI9011
aI4236
aI8407
aI18184
aI16762
aI20765
aI20397
aI17096
aI21162
aI16721
aI16386
aI23538
aI623
aI8930
aI19677
aI21379
aI15217
aI11939
aI5697
aI22032
aI16684
aI19985
aI3931
aI6764
aI23554
aI10932
aI13951
aI14844
aI1053
aI22339
aI19534
aI4279
aI3760
aI2751
aI2492
aI22638
aI3331
aI11159
aI21000
aI22925
aI11584
aI21801
aI22300
aI21107
aI4747
aI19604
aI19937
aI1518
aI20790
aI2411
aI14037
aI1313
aI18442
aI19339
aI11497
aI18884
aI11774
aI16609
aI23832
aI9566
aI7143
aI17692
aI20161
aI9624
aI6138
aI12076
aI22977
aI3400
aI17606
aI10032
aI14346
aI23825
aI19597
aI16676
aI22877
aI22810
aI12847
aI23153
aI21191
aI10172
aI10546
aI10645
aI4707
aI12065
aI9754
aI1280
aI6842
aI9413
aI15056
aI21950
aI8904
aI2291
aI20009
aI5623
aI9679
aI10367
aI22084
aI10726
aI13789
aI10353
aI10412
aI394
aI9910
aI224
aI2771
aI19617
aI9673
aI7627
aI11415
aI1826
aI8952
aI3519
aI16704
aI17791
aI9752
aI16862
aI10569
aI4468
aI19626
aI21831
aI21142
aI15702
aI12009
aI18663
aI22115
aI7970
aI11729
aI19760
aI23320
aI5156
aI7894
aI15114
aI16768
aI4701
aI10375
aI4590
aI16179
aI21812
aI12720
aI7571
aI6246
aI6163
aI12925
aI13914
aI6571
aI276
aI2548
aI4201
aI3699
aI23424
aI20874
aI3110
aI24193
aI15669
aI2311
aI12743
aI2096
aI12496
aI12586
aI8562
aI14919
aI20894
aI9567
aI20908
aI23090
aI14197
aI17034
aI21262
aI8217
aI2870
aI12197
aI3517
aI6898
aI19122
aI22071
aI1887
aI16893
aI21422
aI19616
aI4718
aI5277
aI20123
aI8337
aI20105
aI11096
aI13428
aI18605
aI2842
aI2167
aI19643
aI1542
aI15167
aI5212
aI2517
aI9050
aI13387
aI20628
aI9205
aI7072
aI534
aI2187
aI354
aI17433
aI2213
aI13946
aI7945
aI6613
aI6804
aI18326
aI12674
aI18691
aI15606
aI12648
aI18248
aI19110
aI1088
aI2387
aI126
aI11364
aI6035
aI5543
aI1697
aI11433
aI17291
aI7118
aI6934
aI8489
aI19742
aI2728
aI9959
aI8056
aI10766
aI3161
aI18527
aI15343
aI10639
aI15297
aI18832
aI12459
aI20369
aI3868
aI4596
aI22590
aI4574
aI19453
aI19945
aI16112
aI14981
aI13517
aI17013
aI15461
aI4044
aI21382
aI9191
aI15807
aI10498
aI19407
aI22494
aI6256
aI19044
aI8565
aI13447
aI30
aI2384
aI19229
aI12817
aI17242
aI6962
aI18778
aI2600
aI22211
aI19681
aI5053
aI22286
aI23740
aI899
aI21332
aI1258
aI18219
aI17465
aI22417
aI23485
aI18410
aI22789
aI6517
aI17321
aI21189
aI4009
aI13977
aI9107
aI18001
aI22688
aI16722
aI14186
aI15835
aI14509
aI9485
aI23243
aI23501
aI1489
aI6202
aI4761
aI14994
aI673
aI23543
aI4925
aI7067
aI7634
aI8676
aI6389
aI11065
aI5358
aI16750
aI11175
aI1857
aI9244
aI5959
aI2315
aI22679
aI1195
aI17227
aI16000
aI13117
aI11670
aI17219
aI12063
aI23245
aI8037
aI16599
aI23532
aI20194
aI9096
aI23970
aI15825
aI19487
aI7115
aI4677
aI21123
aI13793
aI3902
aI2955
aI17246
aI2271
aI18561
aI9773
aI20924
aI16592
aI10619
aI20713
aI23671
aI13458
aI23255
aI13121
aI7275
aI8888
aI24057
aI363
aI4202
aI15487
aI10975
aI14926
aI7909
aI23505
aI17800
aI6408
aI16838
aI24022
aI23430
aI18898
aI18233
aI4709
aI11678
aI22133
aI18398
aI17152
aI20081
aI13289
aI11256
aI15485
aI9909
aI13356
aI18541
aI5738
aI8508
aI430
aI8540
aI9457
aI2909
aI14853
aI4711
aI15094
aI10800
aI18821
aI22852
aI8358
aI8499
aI23722
aI22568
aI15549
aI13525
aI2161
aI8593
aI8530
aI12131
aI19282
aI21954
aI21677
aI14968
aI14426
aI19781
aI4998
aI10331
aI15152
aI12942
aI20476
aI4061
aI9834
aI8359
aI22946
aI23714
aI2835
aI19710
aI23522
aI15357
aI10963
aI16506
aI21617
aI18173
aI16636
aI20825
aI9807
aI11318
aI20360
aI2080
aI17825
aI3341
aI15855
aI3332
aI675
aI17921
aI4076
aI6740
aI17965
aI22825
aI23711
aI17789
aI18445
aI15312
aI12310
aI1695
aI21503
aI6130
aI13695
aI475
aI18254
aI13222
aI2845
aI9866
aI24073
aI2951
aI2446
aI15921
aI9098
aI20773
aI33
aI20125
aI2881
aI14506
aI19901
aI1057
aI12611
aI5384
aI4379
aI19058
aI5931
aI8071
aI20169
aI21731
aI11713
aI16398
aI689
aI21769
aI11191
aI3974
aI21504
aI16333
aI13290
aI17294
aI9982
aI6278
aI18411
aI5899
aI18109
aI20252
aI19248
aI1266
aI13968
aI9543
aI166
aI15630
aI6160
aI23704
aI15118
aI7707
aI22227
aI15160
aI4383
aI7107
aI3997
aI19584
aI9407
aI10446
aI20433
aI2070
aI6533
aI4250
aI7921
aI13816
aI2488
aI21943
aI9681
aI124
aI4624
aI18257
aI11407
aI1833
aI6829
aI724
aI18848
aI18083
aI18847
aI22393
aI6501
aI16690
aI4869
aI15116
aI15513
aI6182
aI6567
aI23912
aI13510
aI20977
aI16521
aI14918
aI10031
aI16821
aI15761
aI1797
aI6271
aI20878
aI9794
aI5241
aI7986
aI23700
aI13063
aI20944
aI1378
aI20921
aI17368
aI12237
aI12314
aI18264
aI794
aI15440
aI11821
aI1446
aI13521
aI10011
aI1552
aI20203
aI18836
aI14742
aI8049
aI19987
aI4399
aI17879
aI4002
aI4218
aI755
aI17397
aI1276
aI21078
aI5043
aI13519
aI2107
aI22971
aI46
aI16920
aI11512
aI14811
aI320
aI6917
aI11201
aI2306
aI14856
aI8053
aI14776
aI20148
aI1228
aI18281
aI10360
aI3018
aI7517
aI15467
aI10970
aI11321
aI14874
aI18890
aI4283
aI5378
aI23190
aI3795
aI21884
aI9411
aI10423
aI8893
aI5638
aI14971
aI15878
aI21486
aI36
aI5035
aI14104
aI23181
aI789
aI16886
aI18229
aI11761
aI21559
aI22901
aI22796
aI8179
aI3269
aI17940
aI17023
aI13230
aI4060
aI22277
aI15339
aI17994
aI5875
aI499
aI17052
aI5922
aI22654
aI24158
aI8980
aI11147
aI7807
aI15629
aI4809
aI2839
aI16182
aI8404
aI7758
aI17543
aI8406
aI22404
aI2784
aI5070
aI23974
aI1226
aI22180
aI15285
aI4003
aI10571
aI14108
aI20608
aI1028
aI5900
aI17610
aI19743
aI13403
aI13643
aI5067
aI21466
aI7132
aI20276
aI13252
aI3210
aI19455
aI13613
aI872
aI1171
aI5248
aI17572
aI23033
aI3897
aI14906
aI18196
aI6194
aI590
aI1717
aI22581
aI2283
aI5016
aI16957
aI13852
aI14792
aI1782
aI14127
aI17534
aI6763
aI2118
aI13016
aI2982
aI16763
aI20441
aI13715
aI17618
aI4118
aI8595
aI18852
aI10472
aI18152
aI22938
aI3908
aI19539
aI2224
aI11978
aI7232
aI14660
aI3386
aI23487
aI21758
aI6403
aI22981
aI3625
aI4483
aI14237
aI16524
aI11097
aI6792
aI2866
aI171
aI16232
aI5815
aI19211
aI10641
aI11738
aI3417
aI4721
aI7245
aI18730
aI17702
aI987
aI18030
aI15019
aI7348
aI18573
aI1036
aI17379
aI11701
aI1149
aI21146
aI22773
aI23375
aI15500
aI19204
aI18794
aI5858
aI19306
aI8051
aI23401
aI9641
aI23217
aI13639
aI6197
aI20500
aI5592
aI678
aI8403
aI16965
aI3394
aI18668
aI17803
aI12897
aI14966
aI22021
aI14825
aI2849
aI16814
aI7991
aI118
aI24259
aI3530
aI7255
aI22223
aI3461
aI8097
aI11862
aI22491
aI19364
aI18865
aI16854
aI9544
aI1185
aI18094
aI19093
aI23381
aI10150
aI22449
aI5940
aI18235
aI13493
aI565
aI1693
aI12199
aI17420
aI15684
aI6726
aI23983
aI2976
aI5906
aI14246
aI21786
aI527
aI10872
aI4022
aI16598
aI3292
aI6714
aI12747
aI13408
aI14205
aI3841
aI12273
aI10404
aI20923
aI15556
aI19335
aI19218
aI22866
aI5439
aI17851
aI23343
aI10274
aI8940
aI6085
aI23414
aI8109
aI6674
aI23044
aI3245
aI6771
aI18067
aI17251
aI16633
aI7081
aI8360
aI8296
aI20117
aI6010
aI15363
aI1469
aI10158
aI16151
aI422
aI9447
aI10171
aI12993
aI20751
aI2441
aI20782
aI20258
aI12479
aI10931
aI15053
aI2342
aI22479
aI15445
aI23773
aI4955
aI22758
aI6979
aI13476
aI9297
aI17077
aI20464
aI21958
aI369
aI20620
aI23043
aI9315
aI22035
aI1613
aI3805
aI10484
aI18849
aI8944
aI5433
aI7315
aI18875
aI8718
aI15603
aI7629
aI2082
aI22962
aI3447
aI10260
aI22728
aI4298
aI15822
aI17166
aI8313
aI8132
aI7041
aI3192
aI18453
aI17977
aI11240
aI8413
aI23836
aI16519
aI22505
aI23068
aI19804
aI2576
aI9251
aI13601
aI18609
aI10995
aI1510
aI13286
aI15581
aI11961
aI12573
aI18461
aI6520
aI12924
aI5102
aI16317
aI13173
aI2097
aI10372
aI2614
aI1064
aI21209
aI9260
aI19536
aI5127
aI23106
aI18195
aI22149
aI15619
aI3520
aI23279
aI15000
aI20128
aI11881
aI1750
aI8001
aI11506
aI18759
aI22319
aI17198
aI10479
aI17063
aI2346
aI21302
aI21563
aI22014
aI18769
aI10690
aI14592
aI19569
aI2584
aI5675
aI13828
aI7980
aI12682
aI3713
aI21676
aI2380
aI5698
aI13295
aI9880
aI16572
aI11901
aI6876
aI17869
aI693
aI4302
aI10874
aI21903
aI22484
aI1032
aI23954
aI12524
aI8526
aI20574
aI20130
aI10460
aI3073
aI4984
aI22959
aI14036
aI17267
aI21823
aI906
aI12350
aI965
aI19445
aI4548
aI23769
aI8250
aI4245
aI13999
aI16655
aI6379
aI8127
aI4549
aI15799
aI21768
aI14815
aI10638
aI15650
aI20750
aI16543
aI23124
aI295
aI20124
aI8252
aI16077
aI13035
aI12032
aI14256
aI2803
aI3122
aI11015
aI19363
aI14774
aI17655
aI2185
aI6566
aI15254
aI21530
aI9997
aI11247
aI22659
aI21532
aI12101
aI1060
aI16125
aI12735
aI18244
aI604
aI15171
aI18242
aI19801
aI18138
aI17698
aI2362
aI20943
aI18818
aI6587
aI5211
aI20901
aI5769
aI10147
aI11637
aI9343
aI10763
aI9272
aI11197
aI1295
aI7965
aI17461
aI40
aI14358
aI3116
aI9574
aI13569
aI1264
aI8437
aI13490
aI22432
aI6588
aI14049
aI1716
aI5198
aI610
aI10983
aI21962
aI847
aI18356
aI22990
aI3717
aI11092
aI16003
aI21925
aI14210
aI18112
aI20527
aI3184
aI18203
aI23845
aI8881
aI13692
aI13498
aI11772
aI3969
aI4691
aI6835
aI8125
aI5133
aI14153
aI8010
aI4382
aI20875
aI6801
aI12513
aI9088
aI3608
aI23026
aI22795
aI8736
aI13516
aI8459
aI821
aI17351
aI19825
aI21514
aI15229
aI3514
aI11354
aI2391
aI14301
aI1441
aI23574
aI8803
aI13242
aI21235
aI6341
aI7912
aI10885
aI4531
aI464
aI3831
aI9804
aI21156
aI16107
aI20702
aI8813
aI21131
aI12822
aI23555
aI9261
aI3478
aI21905
aI1847
aI21330
aI1466
aI10343
aI14052
aI10354
aI21148
aI14569
aI14062
aI22371
aI9511
aI6795
aI12163
aI10664
aI24011
aI77
aI18749
aI8572
aI23210
aI4069
aI1208
aI19684
aI4598
aI11076
aI19133
aI6696
aI21348
aI4361
aI16382
aI22089
aI6671
aI17768
aI7818
aI20658
aI7355
aI6688
aI23726
aI15550
aI8513
aI4040
aI22098
aI21947
aI7330
aI12266
aI15509
aI15196
aI1008
aI20941
aI12261
aI5987
aI3499
aI3501
aI10058
aI14664
aI3101
aI16769
aI9064
aI18336
aI4175
aI22415
aI22579
aI14697
aI9816
aI12966
aI1180
aI8045
aI10339
aI3678
aI13232
aI20277
aI6940
aI18702
aI3475
aI3646
aI9504
aI14482
aI5779
aI3262
aI4749
aI14066
aI15218
aI13155
aI2263
aI8782
aI5506
aI13197
aI19786
aI15595
aI21599
aI22450
aI366
aI7341
aI12205
aI6162
aI14060
aI13402
aI20619
aI6765
aI8841
aI1041
aI18367
aI3343
aI5298
aI8783
aI8990
aI12283
aI16515
aI10194
aI3778
aI12243
aI6731
aI21490
aI23151
aI17785
aI22067
aI13797
aI10110
aI10799
aI82
aI14242
aI19361
aI15623
aI2682
aI13065
aI4451
aI24044
aI17404
aI21068
aI19839
aI23785
aI8792
aI16452
aI13629
aI13876
aI13679
aI23979
aI17102
aI2239
aI4429
aI21557
aI8443
aI194
aI2530
aI3583
aI4845
aI22924
aI21081
aI5303
aI14535
aI7394
aI13078
aI23890
aI11758
aI5021
aI538
aI4232
aI2483
aI8495
aI10363
aI5810
aI162
aI184
aI3980
aI638
aI8248
aI2785
aI7564
aI17330
aI7746
aI6418
aI13611
aI9524
aI15718
aI7390
aI8531
aI4946
aI8267
aI5324
aI2875
aI5603
aI22321
aI10891
aI5763
aI15560
aI16490
aI19917
aI23085
aI15546
aI3473
aI22306
aI18068
aI9852
aI8174
aI17607
aI6976
aI12593
aI16391
aI11762
aI18382
aI13553
aI10493
aI22462
aI15227
aI11487
aI20586
aI19558
aI15725
aI15627
aI18563
aI19064
aI21132
aI17524
aI20806
aI21032
aI11275
aI22145
aI7720
aI11698
aI9638
aI20357
aI9668
aI23196
aI15722
aI19314
aI16429
aI1083
aI14721
aI7998
aI5799
aI22615
aI13043
aI3797
aI13620
aI17255
aI17491
aI19026
aI8065
aI12842
aI18134
aI20650
aI15706
aI19084
aI16189
aI13971
aI22269
aI1154
aI8256
aI22340
aI8099
aI1540
aI13587
aI6843
aI4303
aI19370
aI807
aI16927
aI24053
aI16050
aI667
aI5863
aI9745
aI4736
aI4703
aI8442
aI10892
aI23878
aI18325
aI9815
aI13744
aI15226
aI11989
aI10426
aI15644
aI12066
aI21853
aI21474
aI9502
aI18574
aI18139
aI14983
aI21756
aI2514
aI3848
aI16656
aI158
aI23762
aI20770
aI17886
aI10415
aI5903
aI5015
aI15408
aI12959
aI5920
aI6938
aI5347
aI22406
aI10824
aI24111
aI20404
aI13379
aI23916
aI14769
aI2913
aI2117
aI20961
aI1758
aI24002
aI14101
aI21649
aI448
aI2356
aI15325
aI21125
aI17958
aI407
aI12761
aI23431
aI3258
aI15711
aI15968
aI17586
aI23994
aI23615
aI9760
aI23029
aI23813
aI11865
aI5515
aI15397
aI11760
aI22748
aI18857
aI22918
aI20210
aI19733
aI21220
aI11017
aI18627
aI15477
aI15150
aI5183
aI11983
aI18991
aI4564
aI16286
aI9339
aI14157
aI10950
aI5748
aI22363
aI5155
aI12767
aI8338
aI21406
aI17281
aI24220
aI3170
aI9383
aI11806
aI1341
aI10767
aI5647
aI9195
aI23459
aI18303
aI7549
aI19143
aI3551
aI24165
aI20427
aI19916
aI13615
aI12811
aI22801
aI21960
aI4892
aI7774
aI9333
aI8960
aI24129
aI15689
aI11605
aI17966
aI17842
aI22365
aI7635
aI277
aI3324
aI11531
aI16615
aI14661
aI2477
aI3471
aI4027
aI9074
aI2622
aI1344
aI7361
aI298
aI16937
aI5841
aI7450
aI19431
aI10168
aI487
aI15934
aI6722
aI17101
aI23760
aI22512
aI8213
aI1593
aI21816
aI21253
aI21789
aI1342
aI17884
aI11742
aI16409
aI9505
aI12157
aI2087
aI5610
aI589
aI10383
aI10749
aI169
aI11879
aI24161
aI14952
aI2333
aI22657
aI24188
aI799
aI21578
aI16709
aI21588
aI1490
aI5058
aI12175
aI2044
aI1938
aI21964
aI12289
aI13348
aI7748
aI24119
aI9006
aI3852
aI19128
aI1672
aI19220
aI22628
aI8939
aI22219
aI8210
aI22351
aI16745
aI7398
aI9259
aI13555
aI20017
aI6152
aI12776
aI7336
aI18458
aI8538
aI21647
aI13422
aI16549
aI17928
aI1371
aI21349
aI14090
aI12800
aI22665
aI6491
aI10259
aI9231
aI17788
aI23206
aI2506
aI9676
aI8838
aI20295
aI3691
aI24198
aI22265
aI1110
aI22146
aI1432
aI5680
aI4247
aI23870
aI8596
aI16159
aI9981
aI3738
aI10727
aI9093
aI18202
aI21479
aI1037
aI18379
aI5274
aI8259
aI18192
aI20851
aI22111
aI22576
aI14633
aI1049
aI21056
aI21208
aI21063
aI18862
aI18204
aI15157
aI22849
aI1973
aI23393
aI18826
aI13982
aI21765
aI24083
aI9672
aI12377
aI12810
aI21371
aI20643
aI10724
aI9972
aI7609
aI11851
aI19437
aI8012
aI5152
aI7820
aI14344
aI20315
aI1427
aI22065
aI5123
aI14190
aI16248
aI5942
aI4167
aI15659
aI11724
aI12497
aI11591
aI17887
aI7510
aI3044
aI12780
aI11244
aI13928
aI19325
aI17401
aI13697
aI6249
aI8122
aI21024
aI14253
aI16968
aI11261
aI2699
aI5419
aI17539
aI5201
aI9674
aI10289
aI5975
aI12455
aI13906
aI19763
aI8958
aI24271
aI3252
aI6117
aI15740
aI9016
aI1485
aI13760
aI15886
aI2763
aI4208
aI14390
aI15129
aI666
aI10118
aI15703
aI12948
aI10689
aI10052
aI15680
aI8967
aI3903
aI13738
aI23456
aI10133
aI15199
aI22976
aI19171
aI18400
aI16849
aI4820
aI2043
aI21171
aI4036
aI10565
aI24204
aI3966
aI17989
aI3862
aI10958
aI10740
aI1447
aI15047
aI1597
aI6462
aI22231
aI2683
aI18210
aI8936
aI19206
aI12308
aI5483
aI13549
aI10914
aI13344
aI3727
aI4829
aI22793
aI10060
aI23899
aI383
aI20446
aI8834
aI16472
aI6697
aI6529
aI6409
aI6284
aI8380
aI4186
aI4378
aI6099
aI12403
aI2660
aI8251
aI471
aI17216
aI9437
aI20743
aI21306
aI4754
aI19304
aI7235
aI5724
aI11714
aI5840
aI22855
aI2210
aI598
aI12155
aI17279
aI1569
aI6097
aI10940
aI10332
aI14177
aI7650
aI21002
aI20794
aI22933
aI4402
aI12860
aI7726
aI15103
aI23822
aI14639
aI17239
aI19790
aI1473
aI10270
aI4485
aI1642
aI3628
aI19800
aI17952
aI22090
aI3822
aI6558
aI355
aI9642
aI11394
aI14040
aI8116
aI17339
aI918
aI12514
aI6335
aI18207
aI11083
aI2874
aI10573
aI1649
aI3787
aI6854
aI16458
aI18588
aI4418
aI4723
aI4719
aI12017
aI8771
aI5726
aI34
aI4150
aI13326
aI4943
aI14567
aI10557
aI22786
aI23351
aI19999
aI10204
aI6723
aI2977
aI1225
aI23009
aI6133
aI15428
aI4623
aI20121
aI17371
aI18089
aI12429
aI9344
aI1879
aI4151
aI10513
aI15432
aI14415
aI23514
aI16327
aI5855
aI17043
aI21176
aI20942
aI16686
aI19755
aI3181
aI23952
aI1653
aI15641
aI5688
aI3698
aI9645
aI13776
aI22811
aI17513
aI9308
aI10481
aI18742
aI2063
aI16406
aI8843
aI20830
aI12559
aI15132
aI15008
aI20387
aI24048
aI4553
aI20959
aI5390
aI4362
aI15101
aI20883
aI12849
aI18488
aI10783
aI15915
aI15345
aI15654
aI3529
aI12192
aI14359
aI9714
aI20783
aI23062
aI20344
aI6827
aI4992
aI17105
aI13938
aI235
aI21767
aI18602
aI13513
aI20217
aI9143
aI15691
aI3074
aI16995
aI7849
aI2127
aI6609
aI11731
aI5317
aI664
aI12739
aI15543
aI4290
aI7290
aI17434
aI10924
aI14016
aI8435
aI15784
aI15790
aI23749
aI18455
aI16529
aI8632
aI22726
aI21817
aI14077
aI19385
aI12418
aI7264
aI11176
aI20302
aI23946
aI509
aI2828
aI20600
aI2170
aI3254
aI825
aI4690
aI12813
aI22525
aI14538
aI21388
aI8433
aI13595
aI21096
aI21047
aI7852
aI1646
aI5950
aI10333
aI7192
aI998
aI23370
aI20178
aI16565
aI12125
aI8533
aI23293
aI24213
aI21944
aI9527
aI8149
aI18684
aI23792
aI12319
aI13485
aI4769
aI23742
aI17085
aI9829
aI4588
aI4435
aI15645
aI7958
aI6622
aI11891
aI15262
aI9321
aI3133
aI6471
aI20355
aI11245
aI23578
aI199
aI2181
aI14449
aI13588
aI15392
aI11593
aI20221
aI11969
aI9792
aI2150
aI3188
aI3572
aI3351
aI14847
aI3934
aI6541
aI17205
aI18423
aI24062
aI23535
aI1007
aI3141
aI16979
aI23247
aI268
aI19610
aI4547
aI18439
aI23426
aI18631
aI24046
aI5478
aI5994
aI19883
aI9908
aI23790
aI16116
aI20543
aI2765
aI15283
aI6569
aI11619
aI20435
aI24293
aI12400
aI1468
aI23595
aI22099
aI213
aI8825
aI7667
aI1651
aI15573
aI6109
aI4456
aI9605
aI3142
aI1601
aI12785
aI23344
aI1365
aI1558
aI1876
aI13014
aI15667
aI2427
aI660
aI22910
aI14911
aI744
aI1877
aI1798
aI4385
aI18616
aI3464
aI11984
aI2924
aI12899
aI9301
aI2331
aI9310
aI968
aI18707
aI18628
aI7440
aI5278
aI19591
aI18432
aI24257
aI149
aI14653
aI13124
aI13412
aI8275
aI2086
aI23861
aI14187
aI18952
aI12244
aI23873
aI11138
aI23301
aI19438
aI10324
aI12036
aI23944
aI18989
aI19185
aI15678
aI17178
aI5822
aI19632
aI16148
aI10725
aI22930
aI19698
aI7412
aI328
aI205
aI11972
aI7206
aI12599
aI19002
aI11953
aI10535
aI15291
aI15482
aI21143
aI23544
aI21712
aI4296
aI9593
aI24205
aI6755
aI4472
aI13338
aI23810
aI18045
aI6929
aI10242
aI1287
aI4743
aI11745
aI7997
aI7209
aI13544
aI12083
aI1991
aI4012
aI22124
aI20336
aI20873
aI1950
aI20062
aI11137
aI13599
aI7027
aI22965
aI12781
aI4143
aI20052
aI10252
aI4991
aI8333
aI18614
aI7658
aI15038
aI14349
aI11918
aI8298
aI12188
aI13503
aI6750
aI10699
aI8383
aI228
aI1956
aI7531
aI2557
aI19065
aI8767
aI12529
aI3590
aI19208
aI4444
aI4396
aI14932
aI8615
aI14023
aI3929
aI18783
aI12277
aI10318
aI22228
aI8994
aI20122
aI2936
aI22765
aI13056
aI15923
aI570
aI654
aI10850
aI20104
aI13694
aI19173
aI7544
aI10962
aI23512
aI1880
aI6989
aI3404
aI9501
aI10695
aI4735
aI12631
aI9455
aI1018
aI16325
aI4374
aI15918
aI17430
aI19112
aI19850
aI16473
aI752
aI16431
aI11943
aI14929
aI17464
aI13106
aI11683
aI21778
aI8549
aI16639
aI20498
aI16503
aI21833
aI10971
aI19400
aI16476
aI18809
aI3405
aI15605
aI16899
aI23988
aI14170
aI22426
aI19942
aI23123
aI12560
aI9600
aI21329
aI5263
aI8076
aI17937
aI17462
aI7535
aI24041
aI12252
aI20418
aI7751
aI13201
aI3850
aI19714
aI13774
aI15602
aI11290
aI20095
aI19311
aI6282
aI16726
aI18111
aI6519
aI3009
aI1846
aI4880
aI23763
aI20996
aI12030
aI19992
aI6411
aI7360
aI6195
aI23309
aI18051
aI1585
aI3798
aI15947
aI3487
aI22708
aI20623
aI4740
aI14408
aI17683
aI11269
aI23778
aI7591
aI10335
aI23307
aI12385
aI19687
aI2685
aI1754
aI23360
aI16217
aI7718
aI18258
aI23340
aI7605
aI11379
aI11986
aI22281
aI4256
aI13449
aI19771
aI5519
aI5793
aI17875
aI3102
aI21586
aI4524
aI17608
aI6187
aI21866
aI12968
aI21273
aI17343
aI860
aI8883
aI5306
aI7686
aI483
aI8756
aI21990
aI13512
aI4235
aI20348
aI19860
aI15909
aI22313
aI15829
aI15039
aI16319
aI23290
aI19158
aI23490
aI17355
aI5188
aI17984
aI24238
aI9648
aI9176
aI14921
aI7365
aI7641
aI10598
aI14050
aI13159
aI6460
aI21623
aI9796
aI13470
aI12700
aI8761
aI6831
aI16612
aI18194
aI23977
aI15503
aI12309
aI17819
aI24113
aI22753
aI24063
aI21871
aI20301
aI10979
aI2958
aI7657
aI17366
aI20158
aI23866
aI11462
aI5376
aI14920
aI12922
aI15287
aI12268
aI10182
aI11828
aI5993
aI3339
aI17108
aI24151
aI19770
aI15685
aI11689
aI20735
aI844
aI11406
aI11781
aI3682
aI4371
aI703
aI18918
aI9141
aI22171
aI15953
aI8171
aI3410
aI15552
aI14097
aI23463
aI19144
aI2829
aI9065
aI7415
aI10843
aI12421
aI8060
aI18280
aI4936
aI19057
aI23096
aI16559
aI15732
aI5050
aI7071
aI2037
aI21708
aI6252
aI13283
aI6481
aI3832
aI3828
aI21137
aI20305
aI14009
aI81
aI3626
aI1196
aI14990
aI19707
aI5426
aI17276
aI5905
aI889
aI22655
aI5186
aI14380
aI16196
aI3283
aI2550
aI5147
aI5636
aI4857
aI17099
aI4665
aI11693
aI9751
aI14175
aI8842
aI1017
aI19586
aI16865
aI1599
aI15021
aI9863
aI15851
aI21281
aI2207
aI735
aI8484
aI15396
aI11020
aI3703
aI7562
aI12798
aI23579
aI23174
aI6811
aI10576
aI18018
aI7863
aI9644
aI3171
aI4976
aI18810
aI20986
aI19956
aI17175
aI17557
aI12884
aI18342
aI7817
aI13292
aI6043
aI10342
aI20312
aI19915
aI7226
aI3366
aI1357
aI18494
aI19238
aI1173
aI0
aI24298
aI10687
aI20899
aI19274
aI23194
aI963
aI241
aI4933
aI13533
aI7277
aI875
aI11007
aI4455
aI9319
aI2846
aI17245
aI12523
aI17173
aI2633
aI13894
aI17448
aI17907
aI11298
aI17536
aI22489
aI2257
aI12160
aI7725
aI18078
aI6280
aI20180
aI20952
aI10504
aI18466
aI9035
aI13877
aI11958
aI3428
aI10713
aI23820
aI16542
aI8343
aI8809
aI9290
aI11842
aI17037
aI1772
aI14877
aI86
aI16117
aI15563
aI13699
aI17118
aI3747
aI1089
aI4162
aI7144
aI7248
aI2617
aI8073
aI10188
aI4612
aI24264
aI17202
aI5002
aI2220
aI21923
aI12108
aI9282
aI17129
aI17882
aI7914
aI15317
aI21628
aI17687
aI15750
aI12072
aI21844
aI5140
aI17948
aI20612
aI571
aI15138
aI698
aI4848
aI15755
aI5852
aI20931
aI9162
aI1270
aI5113
aI4866
aI1174
aI12590
aI18296
aI7533
aI19129
aI21405
aI2649
aI10045
aI14655
aI23732
aI14896
aI7760
aI12170
aI7328
aI24016
aI482
aI2466
aI21470
aI1448
aI21543
aI24101
aI15412
aI21376
aI13859
aI11037
aI16701
aI4459
aI14763
aI8272
aI12666
aI17312
aI16607
aI3270
aI11671
aI4633
aI3633
aI730
aI16088
aI415
aI4486
aI8897
aI4178
aI1245
aI16816
aI4952
aI7935
aI2468
aI18842
aI23486
aI23960
aI8993
aI22334
aI15671
aI21046
aI155
aI9930
aI23056
aI9155
aI940
aI13495
aI7475
aI24171
aI14536
aI2704
aI13742
aI5777
aI6747
aI16971
aI18430
aI13790
aI4351
aI22289
aI22885
aI5081
aI22068
aI14862
aI19533
aI4949
aI17171
aI2850
aI20367
aI7280
aI23872
aI8670
aI9138
aI8492
aI7454
aI4786
aI2992
aI12445
aI2351
aI23346
aI3588
aI11063
aI3032
aI12286
aI1250
aI14354
aI4710
aI16180
aI3877
aI3584
aI2872
aI16940
aI15772
aI4189
aI8289
aI2796
aI8434
aI3981
aI6142
aI22101
aI12766
aI17005
aI1359
aI17782
aI15571
aI16423
aI22260
aI20592
aI5132
aI7313
aI3556
aI2375
aI18297
aI17945
aI2537
aI11947
aI9133
aI12935
aI13950
aI9130
aI3642
aI15027
aI7298
aI10828
aI4029
aI1439
aI3156
aI21501
aI7310
aI645
aI24295
aI9500
aI3071
aI7555
aI10772
aI10038
aI19835
aI4815
aI16155
aI13421
aI8882
aI16307
aI7551
aI691
aI4696
aI23448
aI19121
aI7882
aI4881
aI4295
aI7543
aI18275
aI7145
aI682
aI19491
aI17435
aI20466
aI6706
aI20566
aI14986
aI19637
aI10796
aI21548
aI7409
aI22297
aI16823
aI4095
aI2339
aI9381
aI22759
aI23263
aI10791
aI15178
aI12544
aI15452
aI22664
aI6463
aI16010
aI5727
aI18552
aI3779
aI544
aI10465
aI24001
aI11894
aI12978
aI15247
aI4419
aI23407
aI11717
aI16716
aI19849
aI20752
aI22457
aI10531
aI4573
aI12091
aI23492
aI4448
aI2307
aI19425
aI6577
aI19613
aI2216
aI23273
aI8742
aI21838
aI12023
aI5187
aI12956
aI9273
aI9989
aI13049
aI14013
aI9656
aI14703
aI18864
aI13888
aI2056
aI4945
aI4090
aI19981
aI10390
aI17073
aI6575
aI4883
aI6227
aI20812
aI10790
aI8206
aI2415
aI2638
aI14976
aI15458
aI3480
aI5918
aI18751
aI16419
aI13526
aI19777
aI10607
aI2262
aI21763
aI8729
aI8509
aI4980
aI1752
aI5773
aI6049
aI4037
aI1970
aI19556
aI9089
aI14866
aI7808
aI2019
aI1890
aI20045
aI218
aI10306
aI10184
aI20023
aI10831
aI17317
aI8982
aI22650
aI5203
aI15296
aI19778
aI5220
aI956
aI20431
aI2594
aI1389
aI6339
aI10720
aI11067
aI20661
aI11210
aI18846
aI22522
aI4127
aI12661
aI14087
aI23226
aI16157
aI21661
aI14114
aI6595
aI1236
aI4335
aI6800
aI23757
aI5514
aI17122
aI76
aI16485
aI9240
aI5831
aI14670
aI20323
aI13054
aI8044
aI17092
aI4109
aI5832
aI8606
aI10697
aI18590
aI20253
aI22701
aI14264
aI2756
aI7538
aI22270
aI23281
aI2877
aI17308
aI3234
aI6289
aI4446
aI18179
aI8969
aI21715
aI22238
aI9018
aI12488
aI12491
aI5890
aI2895
aI21202
aI861
aI1904
aI13575
aI5271
aI2859
aI722
aI20786
aI16976
aI4423
aI6926
aI2156
aI14111
aI6996
aI13771
aI17508
aI1184
aI6634
aI14015
aI904
aI11270
aI3485
aI21111
aI12702
aI2963
aI17571
aI8625
aI15989
aI22346
aI7183
aI14925
aI18704
aI18987
aI17621
aI3917
aI9257
aI1361
aI11260
aI14905
aI23104
aI20419
aI1853
aI5898
aI2479
aI13487
aI8400
aI23523
aI18789
aI3058
aI10020
aI13987
aI1825
aI4541
aI23048
aI13607
aI5524
aI18019
aI22088
aI15499
aI1584
aI16778
aI12353
aI7536
aI10654
aI203
aI18950
aI11213
aI7850
aI20070
aI2930
aI7327
aI17915
aI20100
aI629
aI15651
aI14443
aI19511
aI16602
aI17450
aI1414
aI19963
aI14251
aI5083
aI23488
aI175
aI22826
aI7503
aI23739
aI5639
aI7869
aI9577
aI5265
aI5577
aI16573
aI386
aI7534
aI7216
aI16736
aI1931
aI3562
aI7247
aI8311
aI13758
aI15013
aI6912
aI1288
aI13780
aI677
aI3165
aI23165
aI13824
aI13514
aI18337
aI16146
aI15351
aI15272
aI12528
aI14818
aI18921
aI14085
aI24031
aI10041
aI20411
aI21842
aI2678
aI3761
aI8594
aI8788
aI12109
aI16933
aI7929
aI16136
aI20108
aI19433
aI478
aI5105
aI6040
aI24152
aI18130
aI23231
aI2267
aI18239
aI23258
aI17016
aI1691
aI10518
aI8592
aI22373
aI21092
aI1082
aI17510
aI8914
aI1802
aI2101
aI2777
aI8299
aI11749
aI14393
aI11058
aI737
aI10523
aI15857
aI1067
aI9429
aI13080
aI22539
aI6203
aI18538
aI1577
aI942
aI9858
aI2536
aI23513
aI21861
aI9655
aI977
aI19605
aI6920
aI4389
aI6930
aI20050
aI16241
aI18753
aI2950
aI16648
aI6858
aI22421
aI4103
aI10248
aI22464
aI16553
aI19621
aI2077
aI15474
aI17511
aI23205
aI13002
aI15683
aI16786
aI9189
aI13592
aI12297
aI9891
aI17192
aI11798
aI8488
aI15359
aI4884
aI20721
aI11665
aI20828
aI8780
aI14530
aI23989
aI7014
aI12548
aI12337
aI4692
aI16237
aI6376
aI14621
aI13518
aI4532
aI4720
aI11130
aI13704
aI19321
aI1677
aI3880
aI20047
aI8785
aI1325
aI245
aI22602
aI14465
aI2308
aI13378
aI12910
aI15337
aI20740
aI19072
aI12960
aI18925
aI8701
aI8730
aI500
aI16185
aI10755
aI1
aI11355
aI16229
aI21779
aI17932
aI17285
aI11765
aI11333
aI15333
aI16518
aI8106
aI10568
aI7452
aI12505
aI7530
aI3899
aI12399
aI13543
aI4834
aI14481
aI21350
aI5411
aI1139
aI20857
aI19167
aI13502
aI12092
aI8554
aI18868
aI18172
aI7002
aI18441
aI2196
aI4734
aI21333
aI23057
aI14689
aI15492
aI21465
aI11859
aI6652
aI19911
aI10739
aI21728
aI19953
aI13399
aI20213
aI14586
aI20982
aI11926
aI18622
aI14134
aI13051
aI2317
aI20882
aI9590
aI21445
aI1346
aI8857
aI13843
aI16952
aI17755
aI23998
aI10873
aI11872
aI18996
aI7711
aI7227
aI14898
aI7618
aI21781
aI10525
aI5006
aI6974
aI15771
aI20715
aI1073
aI22461
aI1561
aI15282
aI22217
aI8290
aI8769
aI3419
aI13804
aI24216
aI5663
aI5578
aI11347
aI3648
aI24142
aI6728
aI2227
aI7858
aI3573
aI16727
aI16685
aI4223
aI20805
aI17820
aI19315
aI7752
aI2247
aI3611
aI6305
aI2238
aI8269
aI4919
aI20834
aI13600
aI22190
aI23105
aI8808
aI20880
aI18896
aI9856
aI14266
aI18481
aI893
aI19261
aI15994
aI4112
aI7791
aI19946
aI8812
aI6345
aI2486
aI15622
aI22473
aI23006
aI20443
aI17592
aI16564
aI19424
aI21520
aI23547
aI2442
aI2035
aI16634
aI21882
aI15943
aI2654
aI18228
aI10034
aI20964
aI11753
aI23237
aI6796
aI22648
aI12484
aI21834
aI19863
aI15598
aI23604
aI24087
aI19181
aI8111
aI16914
aI22113
aI23580
aI12145
aI11381
aI10867
aI6371
aI19657
aI622
aI8704
aI12074
aI20
aI17703
aI3539
aI19303
aI23049
aI10871
aI10491
aI1472
aI5057
aI8946
aI4534
aI16959
aI12802
aI7221
aI20601
aI22052
aI23333
aI16168
aI6247
aI8505
aI6935
aI6914
aI15788
aI3423
aI9769
aI19535
aI2769
aI2918
aI11726
aI18636
aI20779
aI4849
aI7082
aI16100
aI18158
aI10265
aI8493
aI11405
aI5842
aI6865
aI2237
aI7045
aI4582
aI23229
aI2016
aI7528
aI14736
aI3013
aI17010
aI12867
aI1911
aI7035
aI5
aI16411
aI974
aI24047
aI1395
aI8341
aI2914
aI23207
aI23119
aI4087
aI3985
aI1424
aI21726
aI16539
aI3820
aI19509
aI3106
aI22398
aI18499
aI15335
aI22147
aI2206
aI991
aI15939
aI11080
aI22589
aI12041
aI6248
aI9594
aI20871
aI9184
aI14154
aI6382
aI466
aI8047
aI14372
aI9394
aI14460
aI16058
aI10556
aI21110
aI8631
aI16266
aI8847
aI7678
aI12595
aI237
aI4681
aI23025
aI9979
aI3742
aI9250
aI11582
aI16955
aI948
aI20972
aI15269
aI9932
aI6243
aI9247
aI8626
aI19343
aI18793
aI16054
aI3369
aI2168
aI191
aI1238
aI19330
aI13161
aI10105
aI254
aI18934
aI3776
aI23833
aI10462
aI4926
aI771
aI12168
aI5130
aI9851
aI12211
aI15929
aI1738
aI12836
aI14392
aI19680
aI22470
aI7060
aI10361
aI23066
aI23713
aI15578
aI21044
aI1856
aI21635
aI18520
aI19301
aI11132
aI19061
aI6444
aI21364
aI10357
aI21298
aI13969
aI11864
aI14394
aI1921
aI1747
aI9041
aI6269
aI9432
aI23362
aI8727
aI4073
aI8196
aI8923
aI12118
aI8663
aI9973
aI153
aI14313
aI21569
aI143
aI9841
aI19853
aI20517
aI20909
aI19492
aI13988
aI15591
aI281
aI21285
aI325
aI10861
aI16653
aI8605
aI10355
aI1000
aI1635
aI8208
aI7382
aI11045
aI19973
aI22913
aI18167
aI17752
aI20784
aI16039
aI24004
aI19231
aI14212
aI7762
aI13511
aI21526
aI14867
aI8000
aI14998
aI18431
aI18250
aI22637
aI18234
aI1912
aI7800
aI14712
aI15849
aI20291
aI7747
aI621
aI5109
aI7291
aI9397
aI16218
aI632
aI4687
aI13702
aI1914
aI3001
aI6873
aI17169
aI9378
aI5964
aI3613
aI6400
aI22994
aI19463
aI6879
aI2871
aI8750
aI6009
aI19186
aI17389
aI12161
aI22696
aI18483
aI16389
aI104
aI6179
aI14805
aI13398
aI23427
aI20064
aI3436
aI11367
aI6235
aI3390
aI15330
aI1145
aI23322
aI10948
aI19214
aI20716
aI9474
aI583
aI17573
aI21059
aI7713
aI5746
aI9082
aI2160
aI14773
aI11700
aI19913
aI13784
aI53
aI2552
aI21175
aI17652
aI1337
aI1249
aI17468
aI18548
aI15072
aI614
aI6479
aI3508
aI11775
aI1501
aI4725
aI15746
aI3967
aI19747
aI14977
aI18645
aI1333
aI18752
aI9169
aI4854
aI9728
aI2345
aI11380
aI9172
aI14713
aI16459
aI20313
aI12033
aI1016
aI8613
aI15817
aI22082
aI20519
aI1852
aI329
aI15544
aI870
aI13591
aI21049
aI11780
aI8019
aI837
aI22878
aI12368
aI7614
aI16652
aI19580
aI9783
aI21591
aI14414
aI17459
aI12970
aI15063
aI21105
aI9691
aI7191
aI2945
aI17480
aI5394
aI1120
aI19562
aI6867
aI18931
aI2203
aI23403
aI19257
aI4244
aI14238
aI23142
aI15931
aI17340
aI1987
aI788
aI7743
aI1044
aI21269
aI3169
aI18352
aI21808
aI7874
aI14259
aI10564
aI11141
aI21121
aI6705
aI9204
aI17845
aI680
aI22945
aI9699
aI24229
aI19892
aI14841
aI1959
aI16674
aI2747
aI11442
aI9445
aI17877
aI15168
aI9017
aI5682
aI3708
aI20532
aI23088
aI20021
aI727
aI3247
aI16724
aI12165
aI6730
aI19085
aI5910
aI23147
aI12579
aI15308
aI14749
aI20530
aI6308
aI5711
aI8964
aI5723
aI19842
aI1998
aI6220
aI23701
aI489
aI840
aI9901
aI7288
aI23175
aI20082
aI1700
aI9529
aI13076
aI7992
aI12730
aI12001
aI13674
aI5331
aI3978
aI3816
aI7142
aI3554
aI4392
aI1203
aI19317
aI595
aI11954
aI14124
aI10561
aI19338
aI13268
aI16739
aI20976
aI16754
aI18841
aI373
aI9345
aI7050
aI9881
aI22314
aI16083
aI14353
aI9599
aI13390
aI24141
aI17495
aI2437
aI3153
aI18225
aI7246
aI8080
aI1767
aI20718
aI4589
aI88
aI9741
aI6721
aI6483
aI9243
aI13729
aI7847
aI15682
aI16042
aI8986
aI5293
aI5089
aI15964
aI22383
aI18994
aI13209
aI4288
aI12143
aI10653
aI6101
aI3047
aI5352
aI17421
aI3763
aI11325
aI5192
aI21003
aI8416
aI11005
aI22838
aI7969
aI11069
aI21643
aI11913
aI21073
aI5720
aI5062
aI21741
aI8140
aI19938
aI18954
aI7097
aI5609
aI13745
aI17165
aI6742
aI14421
aI13720
aI14315
aI3635
aI1962
aI4128
aI15690
aI22500
aI390
aI16643
aI11963
aI24006
aI11113
aI12563
aI1488
aI8465
aI21365
aI10080
aI7781
aI1164
aI888
aI6200
aI4851
aI15965
aI17523
aI14078
aI8114
aI3609
aI14513
aI13243
aI9832
aI7304
aI9078
aI18738
aI8361
aI11712
aI19642
aI14692
aI22739
aI8515
aI2687
aI12994
aI14076
aI17661
aI23134
aI9805
aI22619
aI13565
aI22943
aI12619
aI11368
aI22836
aI19182
aI22523
aI11513
aI702
aI23008
aI4661
aI12515
aI16090
aI21696
aI9782
aI12790
aI2911
aI15997
aI17766
aI712
aI2433
aI23012
aI23126
aI11212
aI15545
aI17444
aI5618
aI21173
aI20695
aI19221
aI12549
aI6957
aI12718
aI21718
aI16905
aI7044
aI20216
aI4641
aI4999
aI2026
aI13358
aI14580
aI20865
aI23865
aI22988
aI23497
aI1892
aI21576
aI23138
aI21122
aI16080
aI1300
aI2529
aI16154
aI10920
aI3992
aI8221
aI9837
aI11732
aI20304
aI6859
aI10170
aI6603
aI23641
aI14850
aI20060
aI6837
aI9283
aI11311
aI18383
aI16960
aI18983
aI18827
aI23572
aI9248
aI121
aI12618
aI11743
aI4077
aI1993
aI19391
aI9757
aI56
aI370
aI7140
aI7108
aI195
aI11502
aI15136
aI7296
aI1976
aI3092
aI838
aI12839
aI16153
aI2609
aI12852
aI2538
aI3342
aI1215
aI736
aI10534
aI18589
aI11383
aI17949
aI919
aI24150
aI6630
aI18678
aI20787
aI1412
aI16480
aI5527
aI5764
aI6883
aI7281
aI10923
aI14704
aI22003
aI15235
aI20822
aI16732
aI16034
aI5458
aI1470
aI19080
aI665
aI1054
aI4207
aI22411
aI6545
aI17855
aI9190
aI3409
aI2009
aI4301
aI5872
aI23638
aI6704
aI11344
aI10334
aI3288
aI7598
aI2597
aI14236
aI3663
aI19040
aI4499
aI20406
aI15462
aI23738
aI9702
aI10440
aI5549
aI19751
aI683
aI3120
aI8123
aI8385
aI6969
aI4488
aI2272
aI12351
aI555
aI6147
aI12646
aI9373
aI648
aI23567
aI1729
aI2398
aI2314
aI2794
aI10909
aI5952
aI12506
aI3582
aI14278
aI12280
aI8075
aI15574
aI12521
aI23464
aI19774
aI23985
aI5768
aI255
aI20950
aI3069
aI17509
aI20529
aI9882
aI21736
aI3581
aI5459
aI5177
aI10083
aI18274
aI15373
aI3320
aI17909
aI14523
aI4629
aI14294
aI8884
aI1620
aI21250
aI6665
aI16630
aI10499
aI5951
aI18136
aI14265
aI20552
aI17454
aI4192
aI6469
aI3838
aI19570
aI21493
aI21255
aI5231
aI14875
aI14307
aI15837
aI18105
aI3277
aI13814
aI12621
aI14537
aI15071
aI7714
aI14514
aI7279
aI13069
aI10802
aI6644
aI19618
aI5579
aI18917
aI1352
aI23797
aI1166
aI21458
aI12389
aI15800
aI296
aI18236
aI9824
aI137
aI207
aI718
aI15384
aI21536
aI4630
aI16552
aI20462
aI17277
aI13610
aI4048
aI18397
aI2725
aI11162
aI13090
aI17587
aI6751
aI12322
aI19943
aI22200
aI5252
aI6985
aI21145
aI8731
aI16541
aI3768
aI4011
aI22225
aI22985
aI16216
aI11119
aI18132
aI1907
aI6412
aI1655
aI23214
aI12238
aI4569
aI15214
aI10164
aI3317
aI2568
aI22246
aI5791
aI12062
aI18891
aI13618
aI8329
aI3177
aI2676
aI3834
aI19879
aI4533
aI5239
aI16678
aI5929
aI23259
aI23621
aI3959
aI18978
aI3668
aI197
aI11971
aI2718
aI13667
aI12671
aI9466
aI11315
aI6421
aI10945
aI28
aI9799
aI836
aI9572
aI11557
aI3293
aI18159
aI5972
aI10529
aI5406
aI15832
aI6367
aI2287
aI14907
aI8376
aI13959
aI16342
aI1946
aI4663
aI9961
aI13483
aI16567
aI14126
aI6690
aI3403
aI6428
aI15108
aI13381
aI5989
aI9984
aI9419
aI24156
aI14461
aI316
aI2712
aI21355
aI22330
aI8397
aI5036
aI2478
aI20696
aI16802
aI11863
aI18054
aI8865
aI7411
aI852
aI6359
aI24211
aI18654
aI15242
aI6589
aI22043
aI21102
aI946
aI13073
aI20647
aI3656
aI12422
aI5718
aI23632
aI411
aI23903
aI18062
aI22163
aI22824
aI4505
aI2363
aI7106
aI21999
aI23793
aI2926
aI21305
aI20674
aI23515
aI21907
aI7455
aI10900
aI18566
aI23972
aI16691
aI2624
aI18534
aI15730
aI10859
aI13456
aI10120
aI19798
aI22181
aI8651
aI17218
aI17821
aI9008
aI8995
aI1829
aI5620
aI863
aI23846
aI5323
aI11268
aI21796
aI22853
aI9005
aI4908
aI259
aI5904
aI1611
aI7208
aI319
aI17088
aI18643
aI17479
aI10642
aI10104
aI20605
aI6707
aI18961
aI8997
aI10455
aI19867
aI4621
aI17352
aI16446
aI12073
aI21325
aI23200
aI19448
aI15540
aI15621
aI13637
aI19166
aI8600
aI1034
aI11254
aI17206
aI21317
aI23635
aI19585
aI14311
aI8271
aI6396
aI19358
aI23473
aI6228
aI9276
aI2592
aI22106
aI20683
aI19386
aI5784
aI19848
aI14118
aI7146
aI9198
aI16233
aI12885
aI14962
aI24277
aI2696
aI11973
aI14231
aI22392
aI2075
aI1830
aI5596
aI11754
aI18530
aI1430
aI18833
aI18272
aI7597
aI16076
aI23694
aI15031
aI22705
aI18807
aI18912
aI371
aI22895
aI11808
aI15470
aI19794
aI24104
aI12522
aI14222
aI10368
aI20415
aI9911
aI22614
aI19702
aI10442
aI15395
aI5502
aI18205
aI10285
aI8664
aI18859
aI22683
aI16270
aI19861
aI16944
aI1624
aI22540
aI13866
aI2017
aI18492
aI15861
aI1981
aI21375
aI24274
aI22506
aI1591
aI17211
aI3488
aI9060
aI16843
aI6174
aI18306
aI24208
aI18052
aI14747
aI219
aI13878
aI7306
aI21567
aI1572
aI18308
aI871
aI8249
aI1459
aI23133
aI19484
aI20514
aI17813
aI23380
aI15035
aI11091
aI18312
aI4481
aI8069
aI2727
aI6525
aI11853
aI8282
aI20701
aI11540
aI10938
aI5255
aI11021
aI4556
aI6030
aI10471
aI9892
aI22207
aI1272
aI5335
aI11417
aI71
aI15302
aI10006
aI20131
aI21213
aI6423
aI13310
aI579
aI13922
aI20501
aI1529
aI7175
aI23489
aI2707
aI9329
aI16070
aI10563
aI2190
aI20174
aI10227
aI18120
aI7954
aI17007
aI16516
aI13984
aI21022
aI10682
aI15448
aI18935
aI6884
aI5117
aI1223
aI9425
aI22104
aI4995
aI912
aI12594
aI12276
aI14100
aI4173
aI16162
aI10175
aI6443
aI10622
aI19394
aI1867
aI9409
aI23534
aI11404
aI18070
aI19442
aI21394
aI13342
aI23690
aI15995
aI12104
aI5153
aI23228
aI1806
aI2527
aI5395
aI1968
aI3553
aI17107
aI21070
aI8399
aI18365
aI15551
aI2390
aI9603
aI7878
aI23092
aI16470
aI11813
aI20580
aI12931
aI4313
aI20762
aI20145
aI20243
aI10736
aI23563
aI12251
aI4436
aI12656
aI19077
aI3540
aI7764
aI5270
aI17950
aI16554
aI3603
aI3486
aI14781
aI18914
aI20733
aI2921
aI22899
aI19460
aI17693
aI13609
aI18309
aI17229
aI18531
aI2089
aI13848
aI23011
aI12343
aI10239
aI6561
aI24023
aI24100
aI1690
aI8242
aI20039
aI4356
aI12711
aI13128
aI16883
aI14440
aI10768
aI9207
aI5829
aI15892
aI3843
aI2456
aI13223
aI19160
aI17653
aI16254
aI4963
aI18508
aI2039
aI10233
aI424
aI19047
aI19505
aI6048
aI23436
aI2838
aI11409
aI19470
aI20262
aI13563
aI10882
aI5542
aI9120
aI1769
aI1739
aI9448
aI3750
aI12695
aI5897
aI4130
aI10530
aI7337
aI312
aI23815
aI20164
aI8874
aI21154
aI19427
aI9716
aI2145
aI17663
aI21099
aI2231
aI12930
aI2074
aI9933
aI11802
aI345
aI9045
aI6925
aI9925
aI1628
aI7029
aI21153
aI4953
aI22226
aI14791
aI4997
aI6314
aI7738
aI13515
aI8429
aI20550
aI1476
aI10511
aI11181
aI7724
aI1732
aI13979
aI19783
aI22867
aI19795
aI13630
aI8224
aI22720
aI19560
aI5651
aI15999
aI22611
aI17644
aI19893
aI23787
aI5790
aI11115
aI15230
aI11060
aI138
aI24241
aI180
aI19441
aI23531
aI15240
aI3187
aI11278
aI5299
aI14271
aI17158
aI15515
aI9963
aI18419
aI6139
aI12102
aI17416
aI17578
aI21053
aI11059
aI15446
aI2186
aI14701
aI21352
aI19495
aI15736
aI15163
aI24091
aI17991
aI9685
aI15707
aI22778
aI4993
aI2445
aI10275
aI3365
aI11148
aI23558
aI20627
aI22558
aI6757
aI6916
aI2425
aI11378
aI9525
aI20246
aI6447
aI20938
aI937
aI1854
aI816
aI20469
aI19598
aI10254
aI9341
aI4179
aI972
aI11933
aI22912
aI18188
aI13088
aI19288
aI3356
aI11217
aI1788
aI14585
aI11399
aI12504
aI2421
aI7646
aI3257
aI8173
aI11074
aI1554
aI9499
aI6579
aI15480
aI12815
aI6286
aI22783
aI6264
aI16133
aI6522
aI2928
aI18073
aI7073
aI8559
aI16511
aI8177
aI23458
aI3910
aI16315
aI21094
aI17426
aI18321
aI8366
aI6881
aI13891
aI9622
aI869
aI3764
aI3684
aI7736
aI13007
aI17405
aI2956
aI5304
aI20467
aI10322
aI13162
aI20199
aI4795
aI18131
aI17130
aI7708
aI14149
aI11672
aI15307
aI9249
aI8396
aI10649
aI13306
aI6945
aI8391
aI1176
aI4635
aI9698
aI5864
aI19713
aI7907
aI9166
aI23005
aI2860
aI2620
aI18477
aI9066
aI9721
aI5112
aI23934
aI15769
aI17696
aI7679
aI19802
aI2230
aI14731
aI811
aI19302
aI12707
aI18708
aI9426
aI23643
aI1936
aI19157
aI5486
aI24090
aI10237
aI21785
aI16330
aI19235
aI8198
aI2679
aI13305
aI6012
aI21462
aI23860
aI10070
aI6319
aI3737
aI13415
aI19227
aI7047
aI5912
aI22530
aI15620
aI5243
aI16351
aI8280
aI13826
aI10717
aI21103
aI1188
aI2112
aI3199
aI18153
aI6547
aI18956
aI11114
aI20958
aI7478
aI5736
aI21975
aI16489
aI8749
aI17298
aI20381
aI24007
aI13185
aI22236
aI14600
aI16582
aI18939
aI13870
aI21565
aI20368
aI7188
aI6255
aI18897
aI15781
aI7170
aI13794
aI15537
aI7727
aI17873
aI1861
aI2159
aI18915
aI22465
aI24212
aI4326
aI11877
aI6071
aI14019
aI17638
aI1556
aI20792
aI23118
aI16660
aI15125
aI6106
aI9746
aI5342
aI7887
aI4882
aI6980
aI8450
aI17084
aI4649
aI15454
aI7201
aI17690
aI16219
aI11733
aI4292
aI14744
aI11785
aI15747
aI22495
aI9923
aI19520
aI2946
aI18880
aI6262
aI23032
aI15198
aI20673
aI18080
aI20521
aI19416
aI18559
aI21787
aI6599
aI9937
aI19049
aI23510
aI11296
aI23527
aI5046
aI20681
aI17659
aI17383
aI17248
aI22255
aI11615
aI17233
aI17114
aI9871
aI16977
aI19243
aI18092
aI11788
aI6653
aI17749
aI13980
aI14005
aI12716
aI15636
aI21542
aI16963
aI17518
aI11908
aI6534
aI7266
aI11523
aI13032
aI11548
aI6118
aI4438
aI4836
aI21286
aI3111
aI1143
aI78
aI5839
aI20261
aI17999
aI10663
aI21097
aI5438
aI7236
aI9510
aI10566
aI19050
aI13507
aI8621
aI17629
aI7964
aI21877
aI2819
aI19847
aI23203
aI20228
aI21157
aI11401
aI10074
aI7554
aI20116
aI15751
aI5584
aI19914
aI19664
aI6782
aI20560
aI17261
aI1199
aI11827
aI2179
aI9294
aI11288
aI2295
aI18945
aI5416
aI23495
aI17199
aI17771
aI20456
aI12643
aI17985
aI18819
aI2236
aI21224
aI8978
aI892
aI5284
aI7660
aI9939
aI22132
aI4323
aI914
aI3442
aI3036
aI8469
aI12190
aI4916
aI13426
aI16348
aI3389
aI23442
aI16746
aI17221
aI20684
aI2085
aI12732
aI5743
aI445
aI12138
aI6608
aI5992
aI20919
aI4910
aI16550
aI6326
aI5836
aI20149
aI14325
aI11246
aI18077
aI19451
aI14522
aI19294
aI11340
aI2889
aI21951
aI7861
aI8302
aI16404
aI12077
aI12433
aI1494
aI10527
aI12658
aI16354
aI3726
aI11905
aI20885
aI6426
aI8877
aI22057
aI20192
aI8454
aI23854
aI19830
aI7129
aI21986
aI5874
aI22897
aI6597
aI9208
aI10382
aI324
aI16872
aI8512
aI5811
aI11068
aI3937
aI1100
aI7583
aI3204
aI23517
aI4258
aI6791
aI16197
aI12489
aI13661
aI16349
aI13660
aI1937
aI460
aI20235
aI10161
aI17399
aI20425
aI14501
aI6459
aI17871
aI393
aI1486
aI7109
aI16500
aI20055
aI19319
aI17249
aI13541
aI2444
aI22405
aI12206
aI4863
aI412
aI4870
aI11242
aI13047
aI17905
aI12288
aI8101
aI24262
aI17918
aI13026
aI14068
aI13396
aI18166
aI19103
aI16128
aI4561
aI5553
aI15320
aI23468
aI3236
aI17763
aI5357
aI14561
aI5995
aI7816
aI264
aI12022
aI14106
aI13926
aI4140
aI16048
aI3888
aI23078
aI23608
aI11174
aI13186
aI4224
aI5176
aI6063
aI4057
aI5691
aI16718
aI303
aI5962
aI13400
aI19053
aI7416
aI23379
aI9402
aI19955
aI8482
aI20906
aI1504
aI15233
aI1114
aI14778
aI6356
aI1587
aI4337
aI3412
aI6788
aI13668
aI8278
aI15976
aI6029
aI16668
aI9711
aI15020
aI23060
aI23216
aI1417
aI1093
aI9194
aI19408
aI1392
aI2558
aI14490
aI8029
aI11644
aI16420
aI8886
aI7270
aI4906
aI20408
aI12364
aI12821
aI2310
aI11868
aI16451
aI2737
aI12423
aI17473
aI14807
aI12005
aI4981
aI193
aI23859
aI1065
aI17732
aI5256
aI7187
aI1995
aI13860
aI12531
aI13853
aI4915
aI10752
aI3438
aI4947
aI16257
aI8591
aI12406
aI4814
aI5565
aI12850
aI2447
aI23661
aI13496
aI7158
aI10068
aI22492
aI352
aI240
aI5678
aI21653
aI5208
aI11222
aI12226
aI9762
aI2516
aI19396
aI10897
aI18267
aI8957
aI9585
aI23378
aI12880
aI8700
aI23883
aI14268
aI6826
aI6592
aI9952
aI24072
aI13861
aI1293
aI8932
aI7895
aI14417
aI19516
aI6839
aI128
aI23433
aI19823
aI15962
aI5093
aI3784
aI10737
aI1779
aI8690
aI8460
aI9591
aI1217
aI4724
aI1252
aI6645
aI14499
aI14474
aI15816
aI513
aI4200
aI2980
aI4388
aI14448
aI13360
aI4647
aI15244
aI495
aI21017
aI16145
aI2326
aI16525
aI22335
aI7309
aI11542
aI17065
aI6206
aI7723
aI20436
aI21335
aI14240
aI22776
aI7933
aI3734
aI2989
aI6004
aI22597
aI3220
aI3999
aI20391
aI1500
aI8421
aI19308
aI13649
aI7973
aI24218
aI4286
aI23943
aI17896
aI8281
aI8800
aI4932
aI17412
aI12509
aI11876
aI23725
aI1309
aI3933
aI13297
aI11305
aI1648
aI6816
aI14348
aI4267
aI14142
aI1019
aI18974
aI10681
aI1292
aI20074
aI5060
aI7240
aI22220
aI18341
aI2843
aI4372
aI4805
aI5251
aI16299
aI17707
aI4940
aI21629
aI17617
aI1773
aI2334
aI20027
aI9489
aI23098
aI20449
aI21420
aI1878
aI22629
aI12111
aI5164
aI20810
aI15263
aI15049
aI20166
aI4270
aI174
aI8193
aI2561
aI6093
aI7410
aI14228
aI21575
aI1787
aI12898
aI11481
aI20571
aI17082
aI6507
aI4469
aI12025
aI21314
aI9532
aI20422
aI8187
aI12625
aI3979
aI4375
aI21835
aI713
aI4755
aI18615
aI7367
aI5185
aI14617
aI12257
aI6768
aI10142
aI5448
aI17214
aI309
aI20460
aI1678
aI4227
aI20567
aI15877
aI20119
aI15442
aI4409
aI18834
aI9414
aI13099
aI12004
aI7947
aI23457
aI2995
aI9218
aI10610
aI8046
aI17790
aI3038
aI17006
aI16460
aI23925
aI22872
aI11583
aI17925
aI21764
aI3546
aI18511
aI14534
aI15954
aI7046
aI15321
aI13300
aI2610
aI9666
aI9588
aI11794
aI11725
aI2761
aI7630
aI16436
aI11330
aI903
aI8141
aI10741
aI7553
aI6334
aI5435
aI22237
aI6869
aI5619
aI12146
aI20057
aI24191
aI15417
aI6388
aI3739
aI23910
aI16866
aI16141
aI20351
aI9825
aI16199
aI17612
aI6150
aI2251
aI22675
aI16791
aI2005
aI1897
aI16295
aI3019
aI4183
aI7116
aI19428
aI2003
aI2827
aI12487
aI20189
aI1102
aI12375
aI2474
aI3402
aI23850
aI10625
aI21613
aI3871
aI21752
aI8309
aI11992
aI3765
aI7786
aI939
aI6576
aI21041
aI18902
aI3695
aI1560
aI11530
aI890
aI12622
aI16413
aI14564
aI20858
aI16999
aI13646
aI16682
aI16372
aI11155
aI15734
aI16119
aI20200
aI16464
aI587
aI23384
aI1402
aI9606
aI5956
aI20286
aI2533
aI18115
aI15250
aI13383
aI19510
aI4990
aI123
aI5289
aI15309
aI20254
aI17657
aI9262
aI10082
aI11590
aI5493
aI8501
aI4445
aI3753
aI20152
aI14130
aI18009
aI13644
aI439
aI16350
aI9427
aI23838
aI7728
aI13101
aI20780
aI18692
aI491
aI9533
aI21467
aI7155
aI11438
aI14367
aI10445
aI13475
aI2335
aI4839
aI23265
aI16725
aI19290
aI10589
aI4632
aI19354
aI8770
aI2544
aI12189
aI11038
aI2841
aI18728
aI11755
aI12398
aI20808
aI23398
aI5338
aI10282
aI22466
aI21163
aI5757
aI17613
aI855
aI24230
aI12902
aI1077
aI7
aI8232
aI16903
aI20853
aI21184
aI23300
aI13437
aI17396
aI21236
aI21598
aI24109
aI17531
aI23768
aI3683
aI21452
aI20630
aI15012
aI19037
aI21674
aI14549
aI3555
aI12501
aI17964
aI18012
aI12318
aI4304
aI953
aI13484
aI5583
aI17968
aI3956
aI21354
aI22600
aI13075
aI11057
aI339
aI273
aI19384
aI5462
aI5754
aI1198
aI8801
aI13488
aI21219
aI18305
aI5230
aI5094
aI6614
aI15860
aI6213
aI18936
aI15234
aI4050
aI745
aI1974
aI13393
aI3842
aI5520
aI4147
aI9047
aI642
aI14883
aI21525
aI24068
aI14518
aI13869
aI5329
aI7568
aI9421
aI15354
aI21323
aI10789
aI2957
aI13030
aI10676
aI13916
aI17156
aI10758
aI1724
aI17922
aI18568
aI17822
aI9847
aI22887
aI2887
aI14914
aI5980
aI8395
aI9493
aI17809
aI22055
aI7993
aI8607
aI17226
aI1277
aI873
aI14171
aI17591
aI4695
aI9030
aI338
aI9822
aI10833
aI21733
aI17988
aI2091
aI10018
aI19104
aI12520
aI17466
aI7405
aI10483
aI23
aI16793
aI4370
aI4746
aI9781
aI13211
aI4367
aI1627
aI11403
aI5129
aI12805
aI4732
aI9389
aI10887
aI15632
aI19270
aI8773
aI22311
aI19169
aI7463
aI13764
aI11543
aI14459
aI5917
aI9059
aI9943
aI146
aI19299
aI11680
aI1285
aI7664
aI11124
aI18143
aI3316
aI2432
aI6877
aI23392
aI14545
aI20488
aI17923
aI18142
aI15586
aI23779
aI6285
aI14507
aI18805
aI2513
aI11600
aI7731
aI2560
aI10769
aI4567
aI14446
aI19840
aI24148
aI16408
aI5894
aI3565
aI21398
aI9327
aI10300
aI22607
aI24003
aI5802
aI1674
aI2348
aI9827
aI16267
aI6637
aI11626
aI13581
aI719
aI18870
aI17209
aI4518
aI13939
aI22400
aI3819
aI8129
aI16961
aI12055
aI14573
aI7859
aI5189
aI22039
aI16224
aI13401
aI1042
aI23571
aI7438
aI23676
aI3242
aI13277
aI17090
aI18049
aI14718
aI6499
aI14828
aI3205
aI20013
aI5522
aI11085
aI19067
aI97
aI17628
aI4680
aI13239
aI18637
aI18922
aI23569
aI19048
aI17254
aI5785
aI11118
aI21972
aI7190
aI3946
aI4308
aI11243
aI3354
aI18085
aI2050
aI14405
aI13579
aI14318
aI18071
aI21441
aI19293
aI20138
aI20457
aI13070
aI2772
aI19090
aI3827
aI13179
aI2825
aI4901
aI4528
aI9481
aI6312
aI14646
aI18982
aI15593
aI2526
aI3925
aI14559
aI13420
aI20742
aI9236
aI20595
aI14593
aI4092
aI6022
aI14483
aI23199
aI19976
aI585
aI19602
aI410
aI13723
aI6084
aI9514
aI15383
aI21136
aI13858
aI14297
aI11455
aI3219
aI8144
aI23306
aI13616
aI8779
aI690
aI13536
aI4221
aI18095
aI257
aI4264
aI14223
aI9230
aI8636
aI17422
aI8085
aI2905
aI1210
aI17392
aI17157
aI6983
aI8858
aI19224
aI3890
aI10927
aI2111
aI14064
aI17864
aI18339
aI8633
aI16692
aI14922
aI23162
aI20640
aI16271
aI9430
aI23220
aI21889
aI19930
aI6417
aI4585
aI19633
aI4194
aI2601
aI3131
aI3928
aI7972
aI16065
aI11291
aI6921
aI6391
aI3206
aI12577
aI4155
aI4411
aI9488
aI22216
aI5710
aI14262
aI6478
aI21912
aI8244
aI5879
aI21770
aI21636
aI10858
aI20965
aI211
aI14022
aI12605
aI17862
aI10548
aI22891
aI2431
aI7885
aI13955
aI4332
aI19197
aI593
aI18823
aI16798
aI15046
aI22210
aI258
aI12086
aI1531
aI13975
aI7836
aI8927
aI7222
aI8004
aI11206
aI21887
aI15382
aI12185
aI15715
aI16193
aI7604
aI23705
aI23308
aI21527
aI12905
aI9196
aI1999
aI16974
aI14267
aI22553
aI16261
aI16288
aI360
aI9845
aI19689
aI6267
aI23612
aI15926
aI22004
aI9621
aI4180
aI12663
aI2790
aI17936
aI4397
aI19711
aI22157
aI11146
aI4583
aI9768
aI18853
aI5457
aI1592
aI13577
aI5631
aI17776
aI3676
aI16230
aI3367
aI22769
aI9541
aI24217
aI3427
aI14464
aI1544
aI9135
aI13020
aI5206
aI8758
aI8675
aI5359
aI9246
aI23278
aI14336
aI8935
aI10379
aI91
aI22780
aI2
aI22125
aI11840
aI10807
aI19152
aI5482
aI24134
aI3780
aI13993
aI152
aI17236
aI8415
aI14912
aI528
aI17678
aI15599
aI22503
aI57
aI8287
aI21829
aI16789
aI12105
aI18366
aI18554
aI1148
aI17212
aI2249
aI17522
aI20966
aI11019
aI4521
aI22931
aI9696
aI20637
aI16884
aI14058
aI9416
aI3560
aI15523
aI2689
aI2146
aI18894
aI1027
aI15584
aI5225
aI22703
aI20259
aI10453
aI4577
aI1103
aI24137
aI3455
aI24232
aI13181
aI7828
aI10435
aI24223
aI24291
aI6903
aI2606
aI2966
aI18747
aI19563
aI10774
aI17097
aI20928
aI19596
aI3886
aI23969
aI5854
aI22700
aI22008
aI8112
aI22240
aI23325
aI17750
aI19639
aI15486
aI22822
aI8427
aI21172
aI9653
aI20785
aI12894
aI20063
aI14389
aI653
aI4659
aI7501
aI19020
aI13084
aI6377
aI8561
aI19588
aI19083
aI21436
aI23476
aI18261
aI8260
aI10349
aI20489
aI17237
aI4170
aI6611
aI2180
aI11352
aI17756
aI5600
aI23252
aI17049
aI9557
aI16661
aI10111
aI17278
aI23874
aI5431
aI5640
aI7518
aI23509
aI11343
aI22869
aI3470
aI21660
aI3140
aI14620
aI5200
aI20345
aI13550
aI24024
aI1404
aI1385
aI16936
aI14695
aI18114
aI4897
aI1146
aI2750
aI11094
aI12148
aI17031
aI8305
aI8966
aI20477
aI21378
aI15365
aI7687
aI13141
aI16972
aI15504
aI22734
aI4713
aI13564
aI2494
aI23022
aI8945
aI14422
aI11607
aI4826
aI13098
aI1081
aI5706
aI262
aI21991
aI11691
aI21418
aI19010
aI8444
aI10614
aI6775
aI17123
aI20518
aI11382
aI12564
aI6701
aI18669
aI4338
aI22459
aI19094
aI12986
aI1229
aI6441
aI18011
aI22094
aI20587
aI7250
aI10881
aI8655
aI2701
aI21564
aI15327
aI13927
aI5507
aI14832
aI22375
aI15531
aI16508
aI17042
aI15002
aI21995
aI8848
aI19003
aI23447
aI23202
aI16878
aI6378
aI18529
aI16635
aI16483
aI5381
aI3042
aI15704
aI5460
aI4610
aI19954
aI15973
aI8745
aI6056
aI21199
aI10024
aI13183
aI4065
aI16540
aI20767
aI8817
aI2418
aI12715
aI22312
aI3460
aI16274
aI13202
aI3914
aI10703
aI22437
aI13815
aI15111
aI11882
aI5302
aI23242
aI12717
aI4407
aI14722
aI11585
aI20294
aI12167
aI7332
aI5895
aI13832
aI11645
aI330
aI16358
aI6860
aI18182
aI16876
aI12565
aI22471
aI18652
aI20073
aI751
aI3434
aI14531
aI20929
aI12293
aI17184
aI17939
aI7910
aI10951
aI17943
aI5776
aI4762
aI8650
aI20564
aI14729
aI20085
aI11525
aI16387
aI17818
aI1183
aI7558
aI22164
aI6310
aI7628
aI9686
aI3982
aI19488
aI7125
aI21060
aI8463
aI1977
aI1679
aI14098
aI2350
aI1764
aI1521
aI15700
aI18084
aI19775
aI18944
aI16822
aI21424
aI11205
aI11526
aI14225
aI7647
aI14854
aI9713
aI1434
aI14709
aI8573
aI7893
aI20251
aI15742
aI10107
aI13486
aI1291
aI7471
aI10515
aI20799
aI17297
aI19469
aI19190
aI1784
aI21836
aI16072
aI13111
aI15028
aI14872
aI11360
aI2092
aI20279
aI23302
aI13312
aI23669
aI15897
aI11801
aI5275
aI19168
aI8734
aI18908
aI21587
aI7600
aI8126
aI14553
aI7435
aI21945
aI5141
aI15097
aI8566
aI22420
aI20205
aI18079
aI21331
aI12541
aI10630
aI936
aI21037
aI23185
aI6149
aI21434
aI8955
aI22761
aI16556
aI24185
aI20991
aI19405
aI19997
aI16024
aI16466
aI12465
aI13875
aI20892
aI10007
aI7210
aI7009
aI19612
aI18721
aI4319
aI17695
aI15311
aI21446
aI16410
aI14521
aI11328
aI3026
aI11495
aI1024
aI8346
aI14903
aI18377
aI13462
aI19595
aI10365
aI1511
aI14795
aI14388
aI7230
aI8646
aI1108
aI16590
aI4937
aI8022
aI24096
aI21805
aI18690
aI17153
aI15149
aI17437
aI16812
aI21869
aI12321
aI18476
aI15249
aI12632
aI21749
aI1719
aI344
aI1622
aI7925
aI20826
aI1168
aI17384
aI22571
aI10461
aI6532
aI15945
aI23623
aI6258
aI11955
aI12927
aI1453
aI4398
aI23254
aI16992
aI14557
aI2758
aI6537
aI23238
aI18013
aI21139
aI16308
aI2709
aI21207
aI14777
aI14042
aI6779
aI4964
aI10477
aI10550
aI8118
aI14656
aI19198
aI9228
aI10089
aI20515
aI8128
aI10286
aI5659
aI15978
aI9475
aI428
aI2511
aI10876
aI12749
aI1135
aI8679
aI4750
aI17956
aI12120
aI17682
aI8671
aI2370
aI22331
aI804
aI13374
aI17680
aI1888
aI16026
aI780
aI5246
aI22718
aI12326
aI5615
aI14771
aI2782
aI20506
aI6919
aI13046
aI19194
aI24114
aI13949
aI15848
aI1122
aI13482
aI20997
aI21275
aI17275
aI8622
aI13255
aI389
aI22042
aI16966
aI18623
aI5472
aI18886
aI1091
aI17194
aI3491
aI12525
aI20960
aI5106
aI13247
aI20365
aI7171
aI23682
aI13617
aI19523
aI11944
aI20448
aI347
aI18598
aI19494
aI9643
aI1479
aI20182
aI576
aI374
aI11350
aI18951
aI21217
aI7827
aI14849
aI11648
aI16166
aI9298
aI2299
aI12633
aI6820
aI22362
aI5538
aI10856
aI829
aI11634
aI17540
aI11056
aI9957
aI11326
aI20019
aI11952
aI4490
aI649
aI15618
aI12370
aI16851
aI19378
aI22389
aI15803
aI9417
aI2522
aI8535
aI7414
aI5030
aI23733
aI900
aI4226
aI6647
aI2011
aI9288
aI6512
aI15733
aI20584
aI1607
aI7653
aI2959
aI15797
aI3720
aI11397
aI22613
aI364
aI11402
aI11225
aI7782
aI5774
aI1056
aI4645
aI21316
aI982
aI16495
aI16683
aI10071
aI7007
aI7090
aI14786
aI8658
aI6678
aI15342
aI8293
aI553
aI23364
aI8462
aI8295
aI10389
aI17515
aI14730
aI14201
aI5138
aI12448
aI4506
aI23582
aI17070
aI612
aI11323
aI176
aI7880
aI8774
aI17636
aI9965
aI2000
aI15889
aI10028
aI16004
aI10490
aI4802
aI16366
aI18316
aI2298
aI12890
aI15766
aI21663
aI2504
aI8895
aI18526
aI12088
aI8693
aI7624
aI7136
aI15958
aI1462
aI21336
aI826
aI11345
aI7260
aI1035
aI13717
aI14403
aI9623
aI11661
aI17135
aI10035
aI20392
aI3814
aI11727
aI266
aI6719
aI23587
aI7615
aI23034
aI7803
aI11782
aI8447
aI14708
aI2347
aI7189
aI6186
aI19979
aI14848
aI13133
aI14365
aI21701
aI16908
aI6068
aI15919
aI21194
aI23100
aI9803
aI20821
aI15137
aI5344
aI16834
aI15818
aI6361
aI5766
aI13265
aI18790
aI3260
aI10153
aI306
aI23765
aI20204
aI379
aI9364
aI2915
aI8388
aI12119
aI9473
aI8034
aI6635
aI12051
aI8685
aI3002
aI8778
aI22390
aI22429
aI6825
aI5924
aI10870
aI21927
aI4983
aI5628
aI17217
aI3306
aI22916
aI5677
aI12287
aI3059
aI5013
aI16654
aI270
aI2943
aI17548
aI17919
aI24231
aI9993
aI15826
aI10719
aI9665
aI4775
aI23024
aI15729
aI1086
aI3498
aI5721
aI3915
aI21966
aI10207
aI16695
aI15709
aI5291
aI4320
aI16537
aI10146
aI9461
aI18113
aI16005
aI14634
aI5693
aI4425
aI12699
aI15220
aI4640
aI12431
aI11748
aI7905
aI18381
aI11687
aI9609
aI4785
aI22858
aI11912
aI12814
aI21683
aI22519
aI1418
aI14099
aI7862
aI15
aI3164
aI22451
aI14447
aI9902
aI22845
aI18029
aI9708
aI4956
aI19690
aI4797
aI1079
aI13726
aI7335
aI14699
aI23673
aI17498
aI4912
aI15390
aI19395
aI7076
aI19228
aI13003
aI11970
aI16939
aI22316
aI2083
aI1498
aI22651
aI7177
aI21906
aI23593
aI6189
aI1299
aI620
aI17860
aI18
aI2079
aI21529
aI12424
aI24061
aI6964
aI4477
aI19222
aI663
aI4316
aI1155
aI3327
aI13130
aI17253
aI1949
aI8088
aI17757
aI14900
aI4927
aI13791
aI11791
aI9239
aI5287
aI14954
aI22559
aI9415
aI1189
aI20820
aI4741
aI18409
aI13976
aI18406
aI16742
aI1066
aI5264
aI14667
aI17463
aI10501
aI1641
aI14473
aI15782
aI4116
aI16126
aI685
aI6223
aI12678
aI13434
aI1428
aI18185
aI22555
aI19017
aI8665
aI824
aI2912
aI14963
aI4262
aI21160
aI3718
aI7829
aI10223
aI4347
aI9608
aI21013
aI5238
aI19357
aI1699
aI14851
aI23274
aI21167
aI6276
aI10996
aI18015
aI21574
aI2429
aI1894
aI4310
aI12536
aI7504
aI2857
aI16697
aI2832
aI23108
aI5591
aI10467
aI17561
aI21992
aI3549
aI1929
aI5687
aI21688
aI17055
aI7866
aI13746
aI24066
aI5944
aI1896
aI5400
aI3379
aI4177
aI7632
aI8816
aI4504
aI17799
aI17532
aI22706
aI13751
aI12130
aI8261
aI14207
aI14750
aI15389
aI2949
aI7877
aI8068
aI16283
aI5166
aI6496
aI25
aI2507
aI8864
aI12755
aI19837
aI18910
aI16071
aI13823
aI6442
aI22999
aI17438
aI1865
aI16616
aI23917
aI8722
aI13567
aI5463
aI12195
aI10044
aI22348
aI170
aI21440
aI4369
aI1009
aI3135
aI4562
aI188
aI23373
aI6042
aI5526
aI1571
aI6640
aI5984
aI3791
aI5145
aI9436
aI7460
aI3222
aI2999
aI14745
aI16673
aI9305
aI21824
aI21774
aI19609
aI20314
aI7844
aI2211
aI5389
aI13146
aI1204
aI15714
aI2382
aI9899
aI11023
aI574
aI8096
aI14878
aI11301
aI14637
aI4726
aI15266
aI21790
aI12923
aI12846
aI21921
aI11578
aI8301
aI20010
aI16509
aI6154
aI8981
aI11282
aI2697
aI19773
aI16601
aI7321
aI6790
aI1463
aI15429
aI10820
aI22915
aI15534
aI12449
aI901
aI21727
aI2109
aI17970
aI2322
aI323
aI8979
aI13652
aI18124
aI16560
aI23545
aI12010
aI10855
aI7932
aI15174
aI14682
aI17944
aI3445
aI17913
aI10087
aI12248
aI5555
aI8057
aI20912
aI6574
aI9357
aI4708
aI7162
aI1260
aI6151
aI17472
aI9791
aI17447
aI5843
aI23799
aI14352
aI13199
aI16192
aI12791
aI23015
aI6874
aI13235
aI14014
aI5569
aI18726
aI6530
aI10027
aI23095
aI8852
aI19902
aI21491
aI20714
aI5114
aI23260
aI5803
aI3063
aI7961
aI1420
aI3344
aI10214
aI11047
aI21610
aI7712
aI12444
aI1312
aI23288
aI9456
aI17067
aI102
aI5932
aI7019
aI1762
aI1193
aI22723
aI6953
aI20087
aI1702
aI16463
aI16174
aI16092
aI13153
aI7513
aI14113
aI4495
aI11475
aI10057
aI14672
aI18671
aI2917
aI5325
aI21965
aI11165
aI19381
aI2627
aI10131
aI21873
aI10584
aI9406
aI12861
aI10208
aI4770
aI4523
aI16160
aI22567
aI16547
aI2057
aI16712
aI20319
aI14663
aI16357
aI6065
aI15802
aI22713
aI7819
aI22069
aI23674
aI10954
aI23152
aI5813
aI17697
aI20162
aI22195
aI8996
aI222
aI18390
aI2653
aI3382
aI9955
aI14275
aI18781
aI1917
aI15698
aI18227
aI1898
aI23664
aI24206
aI9536
aI6643
aI18984
aI7020
aI22900
aI17544
aI5464
aI23911
aI20547
aI22711
aI16912
aI6103
aI23241
aI19332
aI4789
aI13785
aI20927
aI19957
aI18315
aI21933
aI24146
aI9193
aI1883
aI24153
aI19467
aI24075
aI14158
aI8863
aI8263
aI15213
aI20888
aI18189
aI10464
aI6948
aI7180
aI1667
aI19095
aI22264
aI22733
aI9747
aI6239
aI21809
aI17126
aI21423
aI11822
aI11440
aI3194
aI13688
aI11919
aI14662
aI12883
aI163
aI10775
aI11805
aI23588
aI1133
aI15427
aI23272
aI8241
aI2724
aI5297
aI11079
aI22036
aI10084
aI23193
aI20859
aI12568
aI13714
aI20856
aI16782
aI24079
aI18191
aI9516
aI14369
aI19063
aI16156
aI22433
aI1128
aI19269
aI5685
aI21875
aI2209
aI7010
aI23629
aI21859
aI12334
aI16211
aI2188
aI20568
aI6273
aI17824
aI22550
aI809
aI22358
aI15524
aI639
aI9328
aI5318
aI17850
aI14547
aI22291
aI20860
aI12158
aI18061
aI8781
aI15526
aI7466
aI18487
aI8432
aI2705
aI19894
aI23127
aI6761
aI7572
aI15206
aI806
aI13805
aI16214
aI24019
aI19589
aI18331
aI3521
aI11295
aI8915
aI14788
aI15634
aI17061
aI3649
aI21932
aI23271
aI13019
aI18460
aI17858
aI20599
aI9801
aI10307
aI3604
aI24243
aI18509
aI14025
aI12851
aI9168
aI5308
aI23188
aI16611
aI11445
aI695
aI11031
aI22896
aI15144
aI14123
aI11421
aI1137
aI1737
aI5355
aI20863
aI8514
aI9715
aI10212
aI19935
aI23480
aI22015
aI14399
aI22309
aI15304
aI24017
aI21058
aI20672
aI11651
aI16081
aI1324
aI6856
aI13798
aI5788
aI10428
aI23803
aI3697
aI20870
aI2132
aI17293
aI12853
aI9888
aI13642
aI18664
aI19280
aI12269
aI10837
aI16910
aI12452
aI14830
aI15329
aI20932
aI18662
aI15404
aI10738
aI12768
aI19101
aI3627
aI6082
aI23609
aI9839
aI6406
aI22049
aI21498
aI20852
aI6104
aI21433
aI14627
aI5927
aI8239
aI15764
aI23347
aI18625
aI13954
aI16302
aI12284
aI12242
aI20479
aI6907
aI21703
aI6153
aI4662
aI24297
aI23376
aI3033
aI289
aI3325
aI13910
aI11339
aI8166
aI9444
aI11706
aI17616
aI22141
aI22077
aI1720
aI14368
aI5540
aI23311
aI15435
aI13509
aI21215
aI19541
aI16161
aI11988
aI16991
aI2831
aI17357
aI20014
aI24269
aI6830
aI21619
aI6272
aI17046
aI14069
aI17174
aI20090
aI7110
aI2010
aI18462
aI21852
aI5218
aI20007
aI18689
aI21839
aI15983
aI5407
aI10474
aI14759
aI22749
aI22538
aI9718
aI20606
aI19921
aI23236
aI13025
aI8597
aI15391
aI10371
aI6505
aI14184
aI22159
aI7476
aI13330
aI8822
aI4536
aI9253
aI23855
aI6422
aI4210
aI3064
aI11294
aI23416
aI13941
aI3953
aI18333
aI23880
aI23602
aI3022
aI19350
aI13103
aI7024
aI8138
aI14243
aI5824
aI9040
aI14333
aI17717
aI1259
aI15344
aI6593
aI17258
aI6114
aI5828
aI3311
aI16513
aI1939
aI8300
aI7371
aI6455
aI496
aI17011
aI17631
aI11767
aI1975
aI12508
aI8951
aI7990
aI3096
aI7399
aI7835
aI22804
aI14756
aI8137
aI19831
aI16134
aI3388
aI19060
aI4346
aI3441
aI12081
aI10728
aI21473
aI7346
aI17796
aI16368
aI14591
aI19958
aI13366
aI3303
aI10026
aI3301
aI3909
aI10478
aI17418
aI4352
aI6923
aI5124
aI3052
aI13762
aI9377
aI13974
aI3949
aI18328
aI2471
aI21780
aI7379
aI700
aI13907
aI12247
aI17926
aI12335
aI18307
aI4026
aI11571
aI5290
aI9142
aI20256
aI4986
aI14125
aI13806
aI14362
aI18879
aI5430
aI8326
aI6050
aI6504
aI13371
aI24234
aI23496
aI22754
aI6372
aI16608
aI21124
aI9032
aI7949
aI480
aI16014
aI23316
aI6222
aI21366
aI20604
aI22929
aI17094
aI23837
aI16041
aI572
aI11756
aI23562
aI14233
aI10337
aI2378
aI15987
aI10600
aI14944
aI3045
aI10974
aI23637
aI17530
aI17675
aI13116
aI469
aI23047
aI9620
aI2163
aI23907
aI8528
aI20405
aI8707
aI24082
aI9940
aI22715
aI24123
aI10226
aI17552
aI6623
aI10228
aI21296
aI5819
aI18613
aI5401
aI7023
aI1425
aI7812
aI22439
aI21359
aI13865
aI5052
aI3062
aI16507
aI14685
aI18091
aI13997
aI1318
aI3578
aI24034
aI16310
aI7494
aI6725
aI14361
aI19108
aI7285
aI19291
aI23734
aI20596
aI12279
aI2423
aI19611
aI24055
aI524
aI7084
aI3413
aI24054
aI8367
aI21994
aI23186
aI167
aI84
aI2640
aI1194
aI11357
aI8844
aI11586
aI12946
aI10132
aI1594
aI18197
aI23130
aI16945
aI1824
aI3267
aI8461
aI5260
aI22006
aI14220
aI19812
aI17645
aI3619
aI20331
aI9975
aI12034
aI7015
aI7087
aI20120
aI5817
aI12745
aI22155
aI11532
aI1327
aI3883
aI12356
aI13438
aI19628
aI13109
aI11281
aI17912
aI18069
aI18997
aI7093
aI16062
aI13362
aI1528
aI10151
aI766
aI24215
aI21625
aI8899
aI6852
aI21537
aI21459
aI13961
aI9353
aI11759
aI20523
aI17962
aI20240
aI1351
aI12672
aI887
aI12736
aI6960
aI23007
aI14247
aI13193
aI22050
aI23634
aI6695
aI21100
aI12809
aI7495
aI18435
aI21203
aI21893
aI21168
aI21026
aI16707
aI13561
aI13015
aI20748
aI7601
aI8401
aI4730
aI12503
aI14002
aI7079
aI12144
aI19807
aI19474
aI16418
aI441
aI18126
aI16309
aI21088
aI19924
aI3736
aI2359
aI22727
aI17567
aI23659
aI24275
aI3395
aI20103
aI13539
aI617
aI17748
aI14295
aI17363
aI21260
aI8483
aI9368
aI9661
aI3660
aI6135
aI15694
aI23677
aI4702
aI5500
aI2657
aI14615
aI21702
aI668
aI11602
aI10968
aI115
aI13638
aI7806
aI13903
aI16017
aI6724
aI2717
aI3853
aI12270
aI15459
aI7659
aI19910
aI11511
aI4891
aI5557
aI7070
aI1340
aI1583
aI10448
aI12731
aI4474
aI19620
aI14757
aI23841
aI9962
aI21846
aI5534
aI15660
aI282
aI6965
aI4889
aI23359
aI13527
aI7119
aI2403
aI2570
aI11860
aI9145
aI11218
aI2368
aI12339
aI24139
aI20849
aI7028
aI12127
aI4494
aI8887
aI1656
aI20589
aI19749
aI18357
aI12173
aI3505
aI11198
aI10348
aI11214
aI378
aI3942
aI16355
aI8777
aI17767
aI9636
aI3856
aI5377
aI3630
aI14688
aI14000
aI18119
aI15248
aI6677
aI23791
aI15960
aI15982
aI5518
aI18156
aI740
aI5412
aI9951
aI459
aI17230
aI9376
aI15866
aI3669
aI21397
aI24266
aI21437
aI5933
aI18347
aI21084
aI18949
aI8956
aI23102
aI101
aI2602
aI15562
aI20607
aI18475
aI7930
aI6494
aI18427
aI17700
aI18246
aI11461
aI2684
aI3203
aI22851
aI15587
aI11389
aI22121
aI3414
aI2767
aI15548
aI3891
aI1639
aI9738
aI10009
aI15993
aI22618
aI18087
aI10377
aI10966
aI5169
aI21980
aI7742
aI19156
aI2962
aI4951
aI21845
aI11723
aI3665
aI4068
aI2645
aI3807
aI4297
aI3815
aI14089
aI18150
aI7228
aI3154
aI1730
aI18489
aI10701
aI8660
aI15284
aI6458
aI18773
aI12302
aI14162
aI130
aI23287
aI10152
aI18412
aI22446
aI23834
aI433
aI1534
aI3144
aI24177
aI16012
aI19328
aI23622
aI18022
aI15933
aI9823
aI9526
aI4059
aI4416
aI2549
aI23519
aI3782
aI10830
aI1546
aI4551
aI546
aI9183
aI4156
aI978
aI13118
aI601
aI21054
aI13932
aI15579
aI14904
aI1116
aI17605
aI3504
aI7326
aI22023
aI1426
aI20969
aI3729
aI11976
aI6594
aI10327
aI23156
aI21984
aI5092
aI3874
aI9109
aI2046
aI2316
aI23537
aI1165
aI1671
aI19900
aI22643
aI14209
aI6270
aI1543
aI4978
aI14
aI18500
aI21596
aI7643
aI23315
aI16393
aI2817
aI6322
aI6059
aI4368
aI2493
aI12583
aI696
aI3384
aI14577
aI13341
aI18452
aI15107
aI6343
aI13079
aI18962
aI19766
aI18734
aI16131
aI12282
aI9967
aI19896
aI438
aI5572
aI19537
aI9759
aI3989
aI20185
aI1809
aI5818
aI12507
aI10381
aI5775
aI1965
aI9853
aI12637
aI1160
aI15175
aI113
aI4819
aI994
aI1665
aI10852
aI2252
aI6995
aI5157
aI22397
aI14601
aI3913
aI3253
aI13208
aI6185
aI20034
aI18981
aI17098
aI21353
aI4960
aI23796
aI19440
aI9784
aI307
aI6281
aI22080
aI10409
aI14982
aI6263
aI20146
aI15640
aI3595
aI17972
aI8077
aI13943
aI13388
aI12315
aI8715
aI17039
aI12327
aI21417
aI13254
aI15674
aI6119
aI12122
aI23627
aI23721
aI21680
aI10579
aI16084
aI15940
aI3523
aI12801
aI2749
aI227
aI10502
aI13440
aI12540
aI20292
aI24105
aI16320
aI15203
aI5977
aI24084
aI22791
aI13395
aI18420
aI3905
aI2659
aI12312
aI3906
aI12241
aI6126
aI10750
aI10854
aI14073
aI20764
aI13669
aI7364
aI8083
aI22020
aI50
aI16595
aI3796
aI9331
aI10991
aI1721
aI419
aI13944
aI20968
aI18028
aI2878
aI17111
aI17832
aI23449
aI470
aI12132
aI12552
aI21245
aI7464
aI2069
aI7214
aI18556
aI12845
aI10636
aI12651
aI12203
aI14980
aI1483
aI22969
aI9826
aI23167
aI20591
aI12367
aI19175
aI9043
aI14829
aI18675
aI7688
aI11032
aI4051
aI7427
aI5536
aI21282
aI2625
aI15017
aI12705
aI14451
aI19796
aI10097
aI7338
aI14645
aI7066
aI877
aI19119
aI13924
aI8297
aI14120
aI4957
aI3265
aI12115
aI465
aI1604
aI11854
aI23491
aI23411
aI18711
aI7911
aI16790
aI7490
aI3362
aI1640
aI16059
aI7199
aI9990
aI5566
aI17878
aI21291
aI22412
aI1997
aI3570
aI12676
aI14458
aI6364
aI23506
aI41
aI13234
aI8954
aI14314
aI10586
aI22186
aI20686
aI19583
aI17327
aI20378
aI11227
aI11902
aI9052
aI1562
aI20741
aI22053
aI23802
aI19145
aI560
aI2778
aI16397
aI5667
aI9080
aI20522
aI432
aI23844
aI13915
aI20800
aI12028
aI17836
aI17402
aI13913
aI11202
aI10304
aI11184
aI19116
aI21797
aI3401
aI23065
aI3336
aI11042
aI23921
aI1092
aI21091
aI6954
aI3146
aI2304
aI15812
aI12530
aI10190
aI453
aI13770
aI15592
aI21630
aI21913
aI13148
aI6057
aI7422
aI17125
aI2189
aI11928
aI1478
aI15457
aI18161
aI15773
aI1565
aI9682
aI23520
aI9365
aI6111
aI11105
aI16641
aI15502
aI5233
aI18478
aI6287
aI9085
aI9592
aI16587
aI9296
aI5734
aI18553
aI21784
aI22531
aI9471
aI3927
aI12473
aI6046
aI4872
aI23136
aI13368
aI14063
aI9049
aI13262
aI16922
aI15135
aI5511
aI12664
aI251
aI15594
aI17026
aI18665
aI20738
aI552
aI17492
aI11635
aI16002
aI22247
aI11464
aI19409
aI2611
aI19844
aI8667
aI8537
aI22438
aI20717
aI1568
aI5134
aI13666
aI24268
aI21112
aI192
aI21551
aI12995
aI13227
aI17507
aI13221
aI15011
aI22750
aI19577
aI6902
aI11446
aI17241
aI14376
aI3229
aI20459
aI23927
aI4968
aI20340
aI22741
aI16829
aI18657
aI12980
aI22285
aI22888
aI13469
aI10092
aI6120
aI11950
aI17225
aI21161
aI6461
aI17411
aI14765
aI537
aI14720
aI17314
aI19788
aI1859
aI3081
aI7532
aI8866
aI8237
aI18916
aI22425
aI21549
aI23063
aI19075
aI6582
aI16577
aI4767
aI7956
aI13881
aI4072
aI21987
aI13501
aI10744
aI2285
aI109
aI15271
aI18370
aI17282
aI12677
aI16364
aI15891
aI23964
aI20091
aI983
aI11084
aI1271
aI14116
aI20861
aI13194
aI9129
aI9020
aI21615
aI1394
aI4823
aI21669
aI23321
aI21482
aI15288
aI16123
aI22046
aI11498
aI1335
aI17496
aI2029
aI21045
aI10021
aI19719
aI24197
aI9944
aI8759
aI10987
aI15609
aI2655
aI3557
aI4129
aI24157
aI19961
aI13278
aI12483
aI19139
aI14671
aI22214
aI21880
aI16943
aI2810
aI8766
aI21401
aI2104
aI12359
aI23021
aI21403
aI5150
aI17309
aI11471
aI22596
aI14471
aI518
aI4100
aI2158
aI2269
aI7151
aI12
aI8608
aI3385
aI16918
aI5902
aI3023
aI7983
aI19023
aI9630
aI12414
aI308
aI6237
aI3440
aI68
aI4008
aI2708
aI4263
aI8571
aI11833
aI10685
aI20299
aI24107
aI941
aI5288
aI9099
aI2738
aI19615
aI20502
aI69
aI16359
aI1099
aI22955
aI7771
aI8161
aI23840
aI21252
aI13799
aI2175
aI13457
aI20737
aI16036
aI19252
aI7376
aI11024
aI12040
aI21721
aI20353
aI18845
aI13414
aI18359
aI18213
aI21843
aI23305
aI14793
aI5656
aI11139
aI599
aI12602
aI2128
aI7058
aI19388
aI6095
aI4082
aI12944
aI19149
aI16279
aI1023
aI14910
aI15146
aI11377
aI17197
aI6901
aI17190
aI18169
aI6850
aI7013
aI1525
aI22917
aI18020
aI24162
aI3429
aI1471
aI16314
aI24115
aI22107
aI4251
aI23747
aI19923
aI1059
aI4294
aI11066
aI23601
aI7375
aI21239
aI2979
aI11102
aI3178
aI10817
aI16978
aI16881
aI1492
aI372
aI18463
aI15398
aI10711
aI4886
aI16253
aI15212
aI17106
aI18047
aI856
aI14790
aI8988
aI3674
aI1449
aI5110
aI9304
aI19599
aI8072
aI4844
aI9786
aI6944
aI15465
aI13138
aI1553
aI11253
aI23327
aI23869
aI18016
aI21799
aI23824
aI15643
aI327
aI1381
aI14347
aI2903
aI22274
aI13868
aI19212
aI4206
aI7804
aI21042
aI11173
aI1415
aI21681
aI11423
aI18618
aI4067
aI2015
aI15426
aI8819
aI4856
aI18059
aI14589
aI157
aI11778
aI11938
aI4875
aI6294
aI8871
aI3702
aI15007
aI4111
aI19478
aI3620
aI7960
aI10263
aI19841
aI351
aI3614
aI4089
aI11711
aI253
aI7621
aI12984
aI18324
aI18407
aI17
aI13586
aI5532
aI17924
aI6113
aI1046
aI20306
aI19086
aI4473
aI15955
aI16215
aI2774
aI4336
aI6436
aI16488
aI19310
aI19789
aI23481
aI18722
aI9265
aI8672
aI5422
aI22799
aI17579
aI21152
aI12058
aI10902
aI9268
aI7312
aI20979
aI23143
aI10621
aI20625
aI23689
aI23035
aI5453
aI4778
aI17455
aI13429
aI4830
aI7493
aI19146
aI23350
aI2450
aI11657
aI18100
aI7690
aI7520
aI22884
aI6275
aI11309
aI18247
aI6038
aI2823
aI14984
aI1606
aI286
aI1467
aI9618
aI814
aI22267
aI15959
aI238
aI10108
aI20815
aI15043
aI22232
aI5888
aI4106
aI14398
aI16687
aI24132
aI14163
aI4293
aI23253
aI9028
aI12232
aI5761
aI13833
aI8091
aI8254
aI16252
aI14782
aI17250
aI2264
aI22364
aI7561
aI18804
aI1121
aI1926
aI21989
aI11529
aI3088
aI11747
aI10221
aI17867
aI10425
aI3932
aI11807
aI9831
aI3622
aI14821
aI8204
aI23808
aI3048
aI8349
aI16064
aI3970
aI21555
aI13783
aI14618
aI10253
aI1052
aI9346
aI10249
aI4942
aI9452
aI12096
aI13154
aI14694
aI15261
aI23475
aI7599
aI23614
aI3108
aI15791
aI19184
aI17794
aI21407
aI10251
aI7682
aI10040
aI8542
aI16249
aI13687
aI22040
aI23683
aI20803
aI17935
aI6700
aI20362
aI23606
aI13178
aI23296
aI23294
aI22381
aI18580
aI20588
aI6183
aI13696
aI477
aI3672
aI22063
aI8414
aI12600
aI22188
aI4001
aI21195
aI14579
aI14679
aI22682
aI5510
aI21595
aI15413
aI12049
aI17838
aI18768
aI13885
aI14200
aI22668
aI7231
aI5240
aI2499
aI18282
aI2861
aI5497
aI5654
aI18288
aI4959
aI17885
aI14302
aI20621
aI2626
aI22712
aI12770
aI11152
aI8007
aI13114
aI3012
aI8757
aI15845
aI9811
aI9789
aI18717
aI19899
aI2013
aI1850
aI19729
aI5921
aI2058
aI6734
aI17372
aI17981
aI8175
aI1643
aI8160
aI21164
aI19761
aI19649
aI4019
aI18319
aI20272
aI4602
aI20325
aI22293
aI11053
aI2261
aI5492
aI15303
aI23045
aI5281
aI23082
aI5283
aI2862
aI18181
aI9774
aI1380
aI17662
aI12436
aI4636
aI23788
aI20914
aI13163
aI2890
aI20772
aI14172
aI18985
aI10321
aI12187
aI17069
aI20101
aI1220
aI2491
aI8121
aI12534
aI23904
aI17933
aI24117
aI20846
aI24086
aI21080
aI14809
aI12407
aI23042
aI17322
aI13149
aI23862
aI15083
aI16795
aI3636
aI21710
aI18292
aI7822
aI22172
aI5370
aI22122
aI15981
aI19401
aI22586
aI14463
aI16206
aI5181
aI24168
aI17232
aI21646
aI19482
aI23718
aI16167
aI12061
aI17047
aI11636
aI21901
aI22686
aI4729
aI18327
aI9076
aI19540
aI3239
aI20028
aI3854
aI17720
aI4928
aI8247
aI20505
aI22018
aI19276
aI4638
aI451
aI558
aI13619
aI22442
aI400
aI11942
aI5856
aI6306
aI19909
aI22252
aI7698
aI11658
aI14650
aI14410
aI18889
aI4049
aI12722
aI3745
aI13140
aI9506
aI14340
aI7111
aI16037
aI15887
aI21180
aI8583
aI8985
aI13271
aI23267
aI20171
aI8965
aI22934
aI9555
aI4211
aI13318
aI16815
aI2364
aI17641
aI15604
aI10731
aI2674
aI8264
aI10745
aI12626
aI13425
aI22026
aI13042
aI8975
aI12888
aI2399
aI19869
aI6311
aI24221
aI705
aI3454
aI13413
aI468
aI12859
aI1207
aI18346
aI3195
aI2051
aI5703
aI15731
aI2630
aI2618
aI7057
aI4460
aI4078
aI7477
aI6780
aI21460
aI676
aI18803
aI18555
aI3238
aI13656
aI15805
aI7224
aI12202
aI12029
aI22467
aI4004
aI15776
aI6140
aI14486
aI3730
aI22766
aI22370
aI5806
aI10577
aI8369
aI22408
aI16800
aI18709
aI16293
aI10469
aI24059
aI6116
aI11050
aI11474
aI11957
aI450
aI12864
aI16432
aI20531
aI13298
aI18993
aI984
aI1406
aI15186
aI12833
aI18703
aI17535
aI2668
aI21690
aI8911
aI16324
aI1828
aI14681
aI11535
aI10595
aI13053
aI1858
aI2820
aI23746
aI13024
aI10524
aI21762
aI10269
aI3887
aI4343
aI21981
aI409
aI19034
aI22460
aI5399
aI7441
aI23059
aI14768
aI6300
aI23633
aI3641
aI13156
aI12669
aI4097
aI15185
aI6238
aI18660
aI20439
aI79
aI13321
aI21572
aI1331
aI8063
aI17353
aI23064
aI1298
aI8120
aI5883
aI7717
aI11071
aI3704
aI1634
aI23017
aI20102
aI20893
aI6607
aI7016
aI3075
aI1712
aI8919
aI18270
aI15839
aI6939
aI3790
aI21533
aI16457
aI1952
aI13741
aI15340
aI12701
aI15324
aI1355
aI16421
aI13973
aI20257
aI12911
aI19579
aI1536
aI9602
aI5090
aI10761
aI6410
aI20668
aI16708
aI10939
aI15370
aI15793
aI10521
aI4603
aI4395
aI4428
aI5366
aI4669
aI4403
aI16942
aI19515
aI12933
aI1487
aI484
aI2801
aI4970
aI18942
aI10069
aI14395
aI1456
aI23072
aI5908
aI14676
aI2343
aI17775
aI12347
aI17658
aI8941
aI6685
aI3100
aI8536
aI18393
aI9629
aI15869
aI14319
aI9785
aI556
aI16913
aI8682
aI9996
aI14079
aI16291
aI15091
aI13532
aI24182
aI1722
aI3137
aI13120
aI5485
aI1632
aI12913
aI2323
aI9079
aI23189
aI17677
aI239
aI21540
aI20238
aI6497
aI4136
aI2259
aI4017
aI550
aI4465
aI20551
aI12690
aI19854
aI10538
aI11830
aI12616
aI14508
aI23313
aI11618
aI1524
aI15638
aI9167
aI19018
aI16749
aI23956
aI22092
aI10116
aI22287
aI4554
aI6328
aI7855
aI21639
aI16486
aI20575
aI22640
aI22561
aI120
aI16246
aI3770
aI8162
aI21508
aI20492
aI5907
aI24074
aI18355
aI19550
aI2752
aI17526
aI22249
aI4417
aI1733
aI13269
aI16115
aI19340
aI18860
aI3067
aI4790
aI9147
aI14375
aI4972
aI20190
aI7810
aI22631
aI16864
aI834
aI21612
aI15885
aI15165
aI9580
aI22993
aI3687
aI21225
aI20841
aI10955
aI22284
aI20793
aI18772
aI21228
aI8382
aI22174
aI23417
aI7302
aI7113
aI17041
aI18755
aI21268
aI7320
aI11250
aI22644
aI21761
aI16390
aI21188
aI7639
aI4063
aI13554
aI5909
aI8209
aI9375
aI5558
aI20380
aI217
aI17650
aI23559
aI4909
aI17708
aI17051
aI10048
aI12186
aI13557
aI5731
aI20947
aI19155
aI18970
aI8439
aI21312
aI7794
aI10976
aI762
aI12896
aI1920
aI10485
aI17446
aI13224
aI8438
aI4832
aI14084
aI1756
aI17346
aI11570
aI9705
aI16412
aI20458
aI9538
aI13497
aI1480
aI9197
aI1673
aI23297
aI15559
aI11276
aI20789
aI20829
aI1269
aI388
aI865
aI18385
aI19512
aI14551
aI10101
aI2449
aI16047
aI8426
aI15067
aI7768
aI19672
aI10328
aI14675
aI19150
aI3191
aI23014
aI63
aI16013
aI11411
aI10384
aI11692
aI15914
aI3183
aI13838
aI11995
aI13895
aI8503
aI3371
aI11472
aI7025
aI13411
aI2967
aI9966
aI8190
aI12841
aI376
aI20438
aI20129
aI17146
aI3068
aI24233
aI11627
aI14059
aI20525
aI16666
aI13841
aI12937
aI9808
aI3136
aI1118
aI21481
aI17575
aI20585
aI16434
aI23328
aI17741
aI8236
aI7305
aI2661
aI12774
aI22045
aI1923
aI22521
aI6216
aI6908
aI24282
aI20989
aI12908
aI3561
aI21472
aI1397
aI7968
aI3735
aI7404
aI15070
aI17547
aI8709
aI6973
aI7545
aI24051
aI2814
aI10972
aI17831
aI13810
aI7773
aI14680
aI20925
aI13867
aI3900
aI2666
aI22301
aI12652
aI1749
aI10888
aI16433
aI13337
aI16569
aI16478
aI5704
aI20975
aI15164
aI4526
aI5588
aI18727
aI18685
aI7789
aI1005
aI18351
aI6352
aI7802
aI24242
aI21803
aI9177
aI12150
aI10232
aI13634
aI16584
aI17283
aI12793
aI5072
aI15701
aI22635
aI11783
aI7937
aI13253
aI21716
aI22487
aI21892
aI16926
aI18048
aI6654
aI16183
aI22516
aI21963
aI15265
aI10488
aI17665
aI8356
aI6626
aI19875
aI15910
aI22152
aI17713
aI12468
aI13022
aI21804
aI20872
aI11192
aI4616
aI9576
aI23356
aI5217
aI19183
aI18748
aI18871
aI6198
aI17429
aI13240
aI6419
aI17469
aI15341
aI16706
aI21050
aI1167
aI10842
aI17975
aI13313
aI24000
aI4314
aI17004
aI7873
aI9370
aI9277
aI4615
aI10061
aI21477
aI4074
aI17667
aI12472
aI12973
aI20546
aI9936
aI18959
aI8472
aI21141
aI6977
aI21237
aI22342
aI21238
aI21031
aI18226
aI20731
aI4010
aI23843
aI16099
aI15356
aI23887
aI19015
aI4257
aI4145
aI22304
aI15156
aI18758
aI22368
aI21438
aI19192
aI13214
aI3431
aI18670
aI19752
aI1170
aI17477
aI8532
aI16392
aI13871
aI19912
aI7387
aI7916
aI12856
aI11485
aI20241
aI4812
aI4600
aI23516
aI9712
aI22779
aI14678
aI5020
aI13212
aI23331
aI24122
aI11980
aI9626
aI8689
aI19180
aI7003
aI5954
aI9861
aI17329
aI7197
aI260
aI22563
aI13477
aI4269
aI16407
aI23594
aI19471
aI23772
aI3651
aI20364
aI3616
aI13391
aI2482
aI13800
aI18459
aI8610
aI4105
aI23180
aI11077
aI6540
aI19031
aI13435
aI16923
aI2148
aI21662
aI11140
aI15721
aI23782
aI18990
aI18930
aI4055
aI832
aI14612
aI10980
aI6299
aI7160
aI1051
aI10267
aI12742
aI15200
aI3422
aI9540
aI13282
aI2690
aI6753
aI13597
aI22876
aI16875
aI12442
aI21293
aI19636
aI20214
aI21377
aI9441
aI15076
aI7681
aI10258
aI23529
aI9215
aI733
aI3566
aI15060
aI22536
aI10094
aI15087
aI5414
aI15686
aI523
aI17545
aI19519
aI23949
aI21788
aI19193
aI1941
aI16236
aI9635
aI12047
aI8202
aI19644
aI22205
aI6347
aI10103
aI5063
aI22736
aI9031
aI4242
aI14003
aI16909
aI15453
aI17048
aI17927
aI6259
aI23291
aI5575
aI9958
aI5387
aI5937
aI15290
aI396
aI15808
aI13284
aI13010
aI7088
aI18042
aI521
aI15798
aI5321
aI7872
aI1891
aI19099
aI721
aI21848
aI3448
aI6332
aI3150
aI9987
aI18090
aI13964
aI19627
aI4331
aI14748
aI5807
aI20389
aI11104
aI18839
aI19209
aI12526
aI23919
aI19264
aI4704
aI22556
aI19043
aI18798
aI24056
aI1048
aI2505
aI22803
aI6675
aI16339
aI20629
aI22868
aI16917
aI19685
aI2546
aI5796
aI5892
aI10016
aI5573
aI1279
aI8900
aI35
aI11221
aI14760
aI14495
aI9163
aI913
aI13204
aI2910
aI15456
aI11303
aI8410
aI996
aI9868
aI21272
aI14263
aI7481
aI10305
aI14374
aI19100
aI17916
aI6021
aI14129
aI5191
aI24219
aI18666
aI11223
aI22478
aI17292
aI17894
aI139
aI12451
aI9115
aI1958
aI7126
aI1855
aI19273
aI10143
aI5530
aI11589
aI5797
aI22880
aI14541
aI9004
aI18745
aI21410
aI2615
aI20545
aI15305
aI18624
aI1775
aI186
aI17514
aI19191
aI7975
aI5121
aI24290
aI11169
aI13856
aI11579
aI13781
aI12915
aI12246
aI1573
aI20335
aI5861
aI19811
aI17195
aI781
aI627
aI8684
aI190
aI6752
aI6711
aI16079
aI12539
aI10067
aI13883
aI7219
aI7527
aI7423
aI17594
aI9833
aI9380
aI18545
aI14356
aI20918
aI20992
aI13323
aI8870
aI3836
aI4220
aI3904
aI14609
aI3692
aI23958
aI11185
aI4035
aI2818
aI15350
aI7499
aI9210
aI22996
aI17840
aI10847
aI7837
aI20707
aI4280
aI17971
aI6557
aI6961
aI1610
aI7602
aI18291
aI6091
aI15377
aI4654
aI18785
aI5465
aI19528
aI1759
aI15974
aI12630
aI3060
aI14230
aI6348
aI11122
aI16900
aI7439
aI4348
aI16239
aI6266
aI20614
aI15956
aI19559
aI2032
aI10191
aI18023
aI18967
aI12153
aI4281
aI23114
aI16868
aI1127
aI6033
aI21641
aI16954
aI15787
aI1358
aI275
aI15844
aI9112
aI16624
aI23720
aI692
aI20184
aI21632
aI2996
aI15664
aI19006
aI22263
aI14897
aI23173
aI21066
aI15652
aI14636
aI19815
aI11564
aI14961
aI1595
aI10157
aI10596
aI2813
aI23224
aI11596
aI4694
aI738
aI21052
aI16617
aI3724
aI14074
aI7651
aI6933
aI17792
aI19855
aI21193
aI18630
aI12172
aI8806
aI10512
aI3991
aI14658
aI20665
aI20725
aI4771
aI20022
aI3313
aI10351
aI17979
aI4537
aI10217
aI14070
aI9405
aI12982
aI14277
aI17144
aI17546
aI21897
aI4359
aI13779
aI6402
aI8038
aI13836
aI15052
aI23455
aI14429
aI6506
aI10457
aI7734
aI20078
aI16201
aI9221
aI17559
aI19631
aI14218
aI23753
aI1698
aI434
aI3465
aI20136
aI586
aI19456
aI10555
aI1393
aI13873
aI11784
aI17527
aI2573
aI5662
aI9150
aI15134
aI5778
aI6254
aI23940
aI11241
aI8490
aI13430
aI5327
aI18610
aI9960
aI6864
aI21985
aI19926
aI7856
aI1874
aI5489
aI10388
aI9053
aI16780
aI11166
aI7262
aI20234
aI13947
aI8014
aI17580
aI19724
aI9556
aI9337
aI13237
aI6032
aI20827
aI11028
aI8030
aI2821
aI15093
aI19524
aI2367
aI14584
aI22577
aI16581
aI20781
aI21521
aI16632
aI15143
aI8292
aI8551
aI24279
aI12670
aI1087
aI13279
aI16871
aI10317
aI14596
aI12667
aI13505
aI23053
aI20271
aI15633
aI15422
aI8229
aI8688
aI8516
aI18813
aI8522
aI1039
aI823
aI17374
aI7429
aI13995
aI9545
aI12963
aI22599
aI20245
aI5563
aI6845
aI9650
aI7739
aI15064
aI1608
aI14061
aI21538
aI9667
aI3575
aI16867
aI9152
aI20948
aI22310
aI17014
aI4637
aI1728
aI11052
aI19504
aI2402
aI19668
aI7052
aI7915
aI4697
aI5367
aI18175
aI9770
aI4287
aI21782
aI6427
aI1282
aI19686
aI5236
aI2142
aI2663
aI18301
aI23390
aI2157
aI1882
aI4041
aI22044
aI8691
aI13463
aI22980
aI20597
aI2984
aI12589
aI21856
aI4181
aI17182
aI8814
aI22821
aI1841
aI7870
aI3433
aI17722
aI10312
aI13524
aI15065
aI7976
aI976
aI6555
aI22670
aI14444
aI246
aI3964
aI8740
aI14249
aI4307
aI3241
aI5334
aI43
aI20902
aI14051
aI1768
aI4394
aI14808
aI17853
aI18737
aI16426
aI19230
aI15932
aI4930
aI7182
aI22292
aI2964
aI17712
aI2726
aI8587
aI9947
aI20390
aI24060
aI23037
aI3040
aI2225
aI3249
aI8418
aI7857
aI21740
aI5982
aI8983
aI15061
aI15936
aI375
aI11370
aI458
aI421
aI11238
aI20685
aI1816
aI19014
aI22169
aI16571
aI23159
aI22244
aI17319
aI22911
aI19653
aI14840
aI2301
aI21387
aI23626
aI9110
aI24125
aI16225
aI2759
aI3543
aI9097
aI9701
aI22258
aI9890
aI3202
aI14602
aI21351
aI17213
aI17147
aI19932
aI7775
aI21185
aI14827
aI14997
aI4231
aI9731
aI7577
aI23548
aI20416
aI10010
aI2496
aI7117
aI1530
aI21166
aI5997
aI7860
aI3157
aI10660
aI9148
aI22609
aI9737
aI20526
aI12555
aI19503
aI20092
aI7091
aI24184
aI23589
aI11470
aI5088
aI23881
aI6016
aI13382
aI17773
aI12376
aI8164
aI3821
aI444
aI17817
aI12734
aI1842
aI2328
aI20260
aI5162
aI17354
aI17600
aI13645
aI10552
aI3119
aI16535
aI1257
aI20088
aI12971
aI22182
aI1866
aI24246
aI2897
aI3826
aI6794
aI2732
aI8304
aI20318
aI16130
aI15875
aI9
aI6302
aI16331
aI12712
aI22448
aI20985
aI907
aI5725
aI7754
aI11030
aI14466
aI9551
aI4033
aI11608
aI23617
aI13596
aI19326
aI7938
aI21589
aI5369
aI21546
aI5257
aI22847
aI23097
aI4075
aI6770
aI19514
aI14092
aI17272
aI14312
aI4903
aI5161
aI20916
aI23418
aI4420
aI15607
aI8556
aI12954
aI18495
aI12003
aI17476
aI15386
aI11070
aI8545
aI1727
aI16719
aI19007
aI15484
aI11824
aI6894
aI18371
aI23723
aI5782
aI20739
aI17149
aI5762
aI5915
aI11823
aI11697
aI15823
aI2613
aI290
aI4517
aI22551
aI3596
aI9889
aI511
aI4502
aI6687
aI392
aI3077
aI22639
aI4758
aI8876
aI21961
aI4535
aI8680
aI12177
aI3869
aI3493
aI12596
aI9258
aI5715
aI5881
aI858
aI1886
aI5821
aI7021
aI8810
aI9859
aI4873
aI20225
aI17265
aI3707
aI15696
aI21361
aI10197
aI14326
aI13397
aI15034
aI12324
aI7100
aI13568
aI14221
aI13471
aI18770
aI21851
aI16085
aI9659
aI2242
aI21430
aI22022
aI11803
aI3536
aI2354
aI8599
aI21476
aI5437
aI17359
aI986
aI10899
aI19449
aI5276
aI12151
aI3509
aI4507
aI11505
aI7716
aI6373
aI22187
aI20072
aI11673
aI5215
aI17439
aI17996
aI6324
aI16329
aI1650
aI19135
aI15553
aI12757
aI6591
aI13538
aI6013
aI19045
aI18008
aI22676
aI17349
aI10125
aI19934
aI18876
aI22230
aI18762
aI5040
aI8039
aI17348
aI6806
aI14753
aI2458
aI1232
aI4739
aI864
aI12126
aI7642
aI11018
aI21998
aI20582
aI5163
aI22526
aI23932
aI17176
aI17622
aI3214
aI20266
aI24092
aI19247
aI21746
aI19727
aI18037
aI1516
aI9024
aI12782
aI18926
aI23355
aI3533
aI10278
aI10261
aI17959
aI11848
aI23717
aI8352
aI18003
aI20137
aI15951
aI13788
aI2103
aI16546
aI24147
aI22279
aI22954
aI11641
aI10754
aI4686
aI10510
aI3653
aI19298
aI9654
aI318
aI5128
aI21414
aI6105
aI19897
aI10463
aI11458
aI11237
aI2786
aI22419
aI2099
aI15411
aI22756
aI13750
aI1367
aI2273
aI14260
aI4705
aI7167
aI8306
aI18104
aI22974
aI13027
aI14400
aI24173
aI21560
aI4413
aI3585
aI4487
aI3522
aI9382
aI19316
aI19024
aI23177
aI10560
aI20895
aI14502
aI11054
aI10396
aI2721
aI19683
aI10710
aI4587
aI21326
aI10570
aI10081
aI9384
aI5523
aI5765
aI1311
aI20855
aI5168
aI2565
aI6357
aI2787
aI3893
aI23483
aI14930
aI21039
aI2799
aI11332
aI782
aI6360
aI512
aI6288
aI2165
aI14610
aI10229
aI23051
aI7888
aI13739
aI2289
aI15353
aI18705
aI11133
aI23240
aI12807
aI8062
aI15036
aI21072
aI14886
aI10915
aI1422
aI2745
aI5137
aI1743
aI7541
aI15831
aI18940
aI24009
aI9953
aI1021
aI22636
aI10167
aI14140
aI10022
aI606
aI12415
aI4555
aI21518
aI9338
aI14619
aI8110
aI8681
aI9464
aI756
aI4974
aI19889
aI2780
aI13635
aI6924
aI24093
aI21029
aI9581
aI9610
aI16221
aI2567
aI9010
aI12870
aI12703
aI7570
aI74
aI19201
aI14804
aI6169
aI23666
aI13351
aI3420
aI24099
aI18147
aI13743
aI20317
aI16244
aI23270
aI14520
aI19767
aI20957
aI23801
aI131
aI19030
aI17679
aI4464
aI19359
aI7834
aI18725
aI17751
aI10320
aI10062
aI20209
aI9347
aI16073
aI14445
aI3323
aI17263
aI18911
aI3330
aI22762
aI5668
aI5857
aI17336
aI4141
aI6710
aI14219
aI5214
aI7709
aI1329
aI12684
aI9725
aI22879
aI12255
aI23931
aI304
aI18472
aI17740
aI5658
aI10780
aI11812
aI12537
aI19971
aI4153
aI13142
aI13481
aI1117
aI2836
aI4682
aI7430
aI17876
aI9001
aI6781
aI6749
aI6805
aI22253
aI13920
aI910
aI22243
aI17074
aI1423
aI3282
aI1241
aI9695
aI21858
aI9619
aI18375
aI1848
aI9271
aI19950
aI14284
aI22940
aI22972
aI21127
aI8723
aI23361
aI232
aI6110
aI19217
aI15874
aI19662
aI19960
aI17903
aI1408
aI1455
aI11707
aI2808
aI23847
aI420
aI14901
aI9573
aI12462
aI20031
aI2443
aI945
aI16671
aI11777
aI1567
aI12603
aI1025
aI16022
aI6817
aI7524
aI21085
aI21169
aI11553
aI19423
aI2739
aI2302
aI13902
aI19498
aI18417
aI6984
aI850
aI11655
aI2008
aI13439
aI820
aI23073
aI20689
aI3901
aI5866
aI13394
aI2439
aI11289
aI23731
aI22350
aI23955
aI467
aI8588
aI23445
aI13045
aI19877
aI4124
aI6221
aI4808
aI11112
aI7169
aI9371
aI14964
aI20703
aI9335
aI5330
aI8246
aI23991
aI12871
aI12558
aI12917
aI14674
aI6573
aI6993
aI6107
aI1033
aI2730
aI6783
aI21528
aI12943
aI3759
aI5165
aI16753
aI6044
aI1705
aI19845
aI776
aI13631
aI4305
aI22259
aI6556
aI17162
aI7395
aI3256
aI10119
aI14974
aI18376
aI11489
aI7074
aI19882
aI2064
aI20473
aI18338
aI18392
aI6900
aI12706
aI15894
aI21686
aI16710
aI2762
aI23752
aI2983
aI16191
aI9153
aI5385
aI2258
aI2260
aI12231
aI21478
aI10222
aI22013
aI21295
aI3329
aI23075
aI11504
aI24078
aI16585
aI17502
aI11055
aI3823
aI15536
aI6618
aI15334
aI14691
aI895
aI18479
aI8698
aI4896
aI3685
aI16343
aI11356
aI23020
aI3477
aI21513
aI22302
aI15421
aI21113
aI12938
aI1902
aI17188
aI20413
aI16758
aI3547
aI1547
aI13325
aI2329
aI7576
aI8021
aI5440
aI4158
aI5048
aI13670
aI11937
aI1214
aI13864
aI19012
aI723
aI15920
aI9400
aI7474
aI14783
aI5494
aI11398
aI5629
aI15018
aI23374
aI15041
aI4324
aI929
aI18215
aI22992
aI15332
aI1706
aI10482
aI19439
aI2217
aI5116
aI17951
aI12021
aI16456
aI1004
aI13880
aI7492
aI1175
aI24196
aI3024
aI8348
aI5442
aI22295
aI10851
aI3894
aI17957
aI554
aI8973
aI11361
aI19994
aI8614
aI16824
aI14979
aI19178
aI17376
aI21244
aI2068
aI13468
aI688
aI3988
aI13803
aI5222
aI14117
aI18518
aI13113
aI16276
aI22792
aI13151
aI22958
aI1097
aI600
aI1256
aI8451
aI12704
aI18641
aI23146
aI8384
aI15969
aI10079
aI16323
aI11312
aI16023
aI935
aI22658
aI14923
aI19630
aI16121
aI15260
aI17456
aI24300
aI9270
aI20726
aI784
aI9420
aI23667
aI87
aI404
aI10990
aI15241
aI22361
aI23898
aI20118
aI14820
aI22007
aI15497
aI9742
aI19679
aI8677
aI9491
aI20553
aI16096
aI5362
aI18808
aI1484
aI11204
aI19081
aI22844
aI11752
aI21685
aI10906
aI3168
aI13534
aI19553
aI2642
aI1012
aI23230
aI15367
aI24289
aI10065
aI23965
aI5410
aI7994
aI23419
aI13357
aI22072
aI13105
aI11685
aI7539
aI22012
aI22840
aI15209
aI15663
aI20309
aI9802
aI18162
aI7957
aI18345
aI4185
aI16289
aI1201
aI9835
aI11790
aI7289
aI2365
aI19130
aI20548
aI16140
aI11873
aI1421
aI19347
aI9036
aI7757
aI3550
aI4580
aI9286
aI9449
aI16555
aI12050
aI23191
aI23502
aI14546
aI1618
aI22486
aI22177
aI9117
aI4516
aI17288
aI8989
aI8683
aI3496
aI3884
aI4421
aI8011
aI3495
aI17721
aI2321
aI11594
aI13494
aI17727
aI1770
aI15057
aI8347
aI2723
aI8417
aI9433
aI18595
aI15276
aI10819
aI9350
aI14191
aI19162
aI1216
aI2797
aI13291
aI13071
aI9003
aI7680
aI18965
aI9391
aI18027
aI19446
aI11899
aI14332
aI21104
aI3785
aI11817
aI5042
aI12110
aI11158
aI10156
aI15928
aI6988
aI11236
aI22120
aI4277
aI10826
aI20037
aI16770
aI6738
aI16605
aI1755
aI15055
aI23262
aI2804
aI12272
aI23467
aI3632
aI9358
aI19624
aI4760
aI12972
aI6994
aI9225
aI9634
aI11195
aI10458
aI21389
aI6026
aI21655
aI9617
aI11825
aI8017
aI134
aI2192
aI7666
aI8662
aI16806
a.