(lp0
I5847
aI19750
aI12259
aI14418
aI6041
aI17078
aI19600
aI1626
aI4457
aI10907
aI24035
aI18389
aI22997
aI5332
aI14556
aI20663
aI22326
aI8507
aI7373
aI10358
aI9403
aI23688
aI1513
aI14880
aI7094
aI19188
aI22860
aI20244
aI1637
aI22663
aI5432
aI11764
aI23164
aI12886
aI148
aI2577
aI2898
aI19164
aI12191
aI6037
aI4489
aI23858
aI18174
aI5753
aI11262
aI22294
aI39
aI3527
aI20639
aI4093
aI8753
aI17132
aI4358
aI18683
aI7792
aI9821
aI18565
aI20994
aI7265
aI19908
aI4571
aI10839
aI2022
aI22902
aI19576
aI9490
aI5939
aI11248
aI2788
aI3605
aI3010
aI23539
aI13991
aI6692
aI11874
aI2834
aI1884
aI9790
aI5091
aI14093
aI2873
aI23172
aI2131
aI7509
aI10993
aI4544
aI592
aI6102
aI5209
aI15068
aI19803
aI18774
aI16588
aI19223
aI19906
aI2065
aI21634
aI9439
aI12997
aI156
aI3667
aI22808
aI3875
aI18399
aI11387
aI2174
aI11956
aI19703
aI4360
aI22861
aI5795
aI6274
aI20058
aI18806
aI16946
aI15996
aI8643
aI19106
aI5621
aI12733
aI10704
aI9279
aI2172
aI4253
aI15911
aI7005
aI14916
aI23915
aI17596
aI13021
aI11922
aI16033
aI11746
aI10503
aI6386
aI5451
aI20659
aI24018
aI11424
aI18314
aI2891
aI16220
aI2205
aI2424
aI9657
aI11426
aI12220
aI1265
aI225
aI5504
aI23409
aI14595
aI15737
aI2760
aI21711
aI5421
aI12217
aI4476
aI17861
aI3541
aI1822
aI19120
aI21982
aI12773
aI209
aI16200
aI3693
aI13718
aI19949
aI19434
aI24140
aI3559
aI2920
aI22952
aI16902
aI2137
aI11108
aI16603
aI12341
aI17000
aI8637
aI4727
aI20341
aI20478
aI4570
aI11392
aI8457
aI23630
aI19623
aI13821
aI18750
aI12965
aI19725
aI18176
aI17284
aI9007
aI22710
aI16188
aI14539
aI23280
aI18687
aI16837
aI4651
aI6718
aI15547
aI12947
aI18831
aI5258
aI11820
aI13370
aI21584
aI19046
aI8496
aI20454
aI16105
aI9424
aI11488
aI801
aI5661
aI23269
aI11013
aI9119
aI2480
aI16681
aI575
aI24038
aI9188
aI22153
aI7369
aI6841
aI1906
aI5353
aI1290
aI21443
aI21650
aI14371
aI22359
aI955
aI6732
aI14895
aI17127
aI4291
aI22767
aI13716
aI11220
aI23070
aI19480
aI1539
aI5409
aI9330
aI13041
aI20817
aI21714
aI22697
aI12430
aI9323
aI6165
aI5382
aI3892
aI13817
aI23897
aI2612
aI15026
aI22229
aI13281
aI14164
aI18608
aI21421
aI23842
aI13545
aI14719
aI4751
aI7308
aI8647
aI24015
aI10986
aI4249
aI17589
aI5531
aI17260
aI5985
aI3792
aI1919
aI1132
aI17908
aI12113
aI2941
aI16403
aI5309
aI6748
aI21280
aI12412
aI11920
aI12439
aI10030
aI17872
aI16825
aI845
aI9887
aI9865
aI1800
aI16422
aI12659
aI11838
aI3291
aI23993
aI19369
aI16703
aI19089
aI20250
aI6370
aI19663
aI7596
aI18098
aI9069
aI13691
aI9320
aI4187
aI5373
aI11946
aI2093
aI26
aI20711
aI6127
aI19593
aI15541
aI11034
aI21837
aI1437
aI368
aI17299
aI10545
aI18449
aI18606
aI18276
aI11541
aI5056
aI6904
aI3721
aI10792
aI19506
aI4056
aI4989
aI16622
aI21870
aI1491
aI17533
aI164
aI11964
aI6098
aI4759
aI15868
aI20904
aI10268
aI13989
aI9398
aI12230
aI7311
aI679
aI11186
aI10655
aI15873
aI17673
aI8005
aI6397
aI5547
aI20774
aI3696
aI8604
aI14167
aI3537
aI5372
aI21620
aI9075
aI1222
aI16035
aI22366
aI5844
aI10145
aI3228
aI15649
aI5213
aI16651
aI8725
aI17892
aI1590
aI8500
aI5154
aI7740
aI514
aI4266
aI7391
aI10244
aI13594
aI18515
aI20274
aI13528
aI18057
aI6358
aI13845
aI5341
aI18238
aI5045
aI21614
aI17619
aI16019
aI14710
aI1810
aI4182
aI11623
aI10806
aI9434
aI6061
aI9812
aI20412
aI24296
aI22151
aI3459
aI21230
aI19753
aI13748
aI21015
aI17159
aI9758
aI23289
aI6034
aI19375
aI2060
aI13037
aI13190
aI708
aI11567
aI7465
aI24050
aI2414
aI8214
aI16773
aI21396
aI21120
aI24254
aI19927
aI425
aI4958
aI16533
aI1703
aI14798
aI4604
aI16468
aI20366
aI9612
aI23827
aI5097
aI11492
aI15142
aI16477
aI2604
aI18771
aI13180
aI23076
aI2628
aI17647
aI20845
aI15716
aI1602
aI12644
aI11491
aI12365
aI6814
aI3453
aI12654
aI24228
aI975
aI3159
aI543
aI23848
aI536
aI6744
aI8938
aI13050
aI11507
aI1200
aI7521
aI23107
aI21257
aI16124
aI13901
aI4894
aI12543
aI2554
aI2716
aI12969
aI7753
aI248
aI18318
aI22507
aI14735
aI10949
aI20417
aI14112
aI13777
aI23575
aI4241
aI10340
aI13755
aI16967
aI15867
aI15770
aI19172
aI11797
aI14384
aI10934
aI20133
aI10973
aI13734
aI16756
aI23781
aI17556
aI5771
aI1407
aI6915
aI6404
aI21642
aI23556
aI22189
aI17393
aI2500
aI4144
aI6578
aI3175
aI22737
aI14305
aI23906
aI3274
aI2200
aI13965
aI4165
aI2076
aI14324
aI19349
aI4045
aI13747
aI6473
aI7508
aI957
aI14746
aI19468
aI14758
aI24069
aI18043
aI18634
aI10296
aI7120
aI7456
aI10543
aI14560
aI7732
aI10495
aI19457
aI10723
aI11232
aI7939
aI3896
aI20732
aI3299
aI9726
aI16895
aI21883
aI4115
aI14837
aI8547
aI16089
aI8322
aI8108
aI22666
aI21524
aI23235
aI17154
aI20676
aI2040
aI9720
aI14143
aI3166
aI7323
aI14281
aI4475
aI13125
aI9127
aI10866
aI19720
aI15510
aI8869
aI6092
aI10206
aI10141
aI6019
aI10519
aI18681
aI19271
aI17837
aI17201
aI7626
aI15856
aI19606
aI22890
aI17701
aI11508
aI3835
aI10236
aI22763
aI14706
aI8225
aI21693
aI21894
aI23600
aI8793
aI6062
aI21759
aI12265
aI880
aI1793
aI8095
aI8929
aI5029
aI24045
aI14173
aI5963
aI8332
aI473
aI23179
aI16921
aI14996
aI5392
aI10893
aI16439
aI9459
aI18097
aI13972
aI17574
aI23484
aI16561
aI15313
aI19572
aI13659
aI22148
aI4415
aI15511
aI16741
aI19056
aI19756
aI18698
aI9521
aI14842
aI3568
aI11334
aI23345
aI11408
aI12434
aI13320
aI18183
aI19118
aI10085
aI21941
aI729
aI20598
aI7381
aI23605
aI8145
aI18906
aI23031
aI2212
aI20150
aI23774
aI22914
aI22493
aI12390
aI23087
aI20393
aI17568
aI11419
aI17457
aI8612
aI2852
aI3132
aI443
aI11818
aI10430
aI4355
aI7841
aI4000
aI20636
aI2255
aI2603
aI20556
aI4784
aI17808
aI19461
aI6682
aI6615
aI20265
aI15741
aI12909
aI11374
aI9322
aI12907
aI95
aI14110
aI19195
aI14132
aI7881
aI7864
aI10532
aI20363
aI21827
aI18425
aI12306
aI22485
aI13167
aI11188
aI5065
aI12381
aI19475
aI23961
aI6741
aI20352
aI1253
aI14858
aI18651
aI19522
aI11858
aI14576
aI19035
aI15191
aI6836
aI14938
aI7542
aI13405
aI2677
aI24280
aI19420
aI21150
aI7099
aI17325
aI3139
aI11219
aI9295
aI11552
aI21723
aI10794
aI2770
aI13621
aI23831
aI6291
aI23292
aI11577
aI19140
aI1761
aI5190
aI24154
aI3458
aI896
aI21952
aI7425
aI10106
aI2906
aI20434
aI15257
aI7830
aI1153
aI14511
aI20232
aI13139
aI12493
aI14280
aI8772
aI20776
aI16664
aI9438
aI13663
aI11885
aI2059
aI22248
aI11273
aI4716
aI17500
aI8692
aI1839
aI22673
aI21502
aI15298
aI4184
aI9735
aI4850
aI10042
aI4342
aI1905
aI10364
aI15378
aI22983
aI23995
aI6128
aI22781
aI17075
aI5074
aI8104
aI14863
aI3209
aI22208
aI2520
aI61
aI486
aI10433
aI11027
aI462
aI17449
aI7655
aI21007
aI17833
aI6570
aI1823
aI3788
aI19287
aI9293
aI23884
aI20030
aI19546
aI12576
aI8098
aI17934
aI9904
aI20343
aI10293
aI18123
aI8849
aI15642
aI6052
aI22948
aI14548
aI20593
aI17274
aI1386
aI9156
aI10290
aI348
aI5099
aI671
aI3014
aI9342
aI283
aI13220
aI18125
aI964
aI1314
aI6956
aI10633
aI7419
aI13033
aI4828
aI8148
aI9186
aI20497
aI19489
aI17857
aI11640
aI15657
aI15326
aI3364
aI15525
aI16132
aI4119
aI21201
aI8052
aI7779
aI22649
aI17358
aI16928
aI15159
aI10541
aI7896
aI8471
aI6978
aI971
aI17603
aI17848
aI16538
aI7496
aI5267
aI5604
aI4511
aI1328
aI10544
aI22986
aI357
aI3586
aI830
aI9234
aI20215
aI3363
aI16805
aI6650
aI10179
aI16399
aI7759
aI9552
aI2410
aI11073
aI12142
aI14544
aI2169
aI23663
aI16447
aI6439
aI17805
aI3490
aI20864
aI12338
aI110
aI13842
aI790
aI8494
aI447
aI343
aI6950
aI3373
aI4670
aI16396
aI23616
aI5490
aI13008
aI3484
aI21684
aI22160
aI12914
aI12740
aI4018
aI22454
aI15847
aI2034
aI17777
aI6146
aI9314
aI22257
aI21451
aI4765
aI196
aI20407
aI15568
aI9935
aI15631
aI13551
aI772
aI22923
aI3829
aI5071
aI12887
aI12641
aI21292
aI10860
aI4745
aI9423
aI17436
aI2352
aI6086
aI22276
aI753
aI6217
aI4380
aI11663
aI4085
aI16296
aI8855
aI5642
aI3129
aI17726
aI1240
aI12154
aI13416
aI24
aI4920
aI11255
aI14890
aI12546
aI7124
aI3457
aI20900
aI3296
aI6823
aI6407
aI2545
aI269
aI6366
aI7152
aI19266
aI19161
aI19929
aI4737
aI10994
aI9756
aI19746
aI7865
aI2098
aI3569
aI18311
aI9237
aI22047
aI4838
aI3863
aI14439
aI11702
aI2366
aI13147
aI4215
aI7582
aI22213
aI11365
aI22707
aI8325
aI20451
aI2452
aI1163
aI18575
aI22939
aI1322
aI22126
aI6316
aI23658
aI997
aI21699
aI10673
aI23284
aI18938
aI2919
aI11521
aI4404
aI12492
aI9048
aI346
aI9387
aI15051
aI14323
aI24021
aI9945
aI14813
aI2867
aI2844
aI9914
aI23257
aI4619
aI17844
aI2405
aI2864
aI9631
aI20110
aI16973
aI20421
aI3497
aI18786
aI6336
aI22652
aI20819
aI22725
aI1297
aI17441
aI8291
aI2766
aI332
aI13725
aI14055
aI3309
aI5646
aI14797
aI16171
aI14139
aI8054
aI15542
aI9753
aI7721
aI7741
aI5380
aI3677
aI21896
aI20576
aI13406
aI173
aI19673
aI12100
aI5413
aI6518
aI16949
aI14043
aI15346
aI16606
aI18633
aI7665
aI18763
aI12214
aI12363
aI5322
aI4563
aI8524
aI2140
aI1126
aI1315
aI9977
aI23275
aI24033
aI10373
aI20868
aI22095
aI17709
aI11444
aI931
aI6078
aI15170
aI2798
aI21247
aI18240
aI22627
aI6887
aI13228
aI13673
aI17834
aI18586
aI19709
aI14133
aI8878
aI8991
aI9374
aI12245
aI22093
aI19360
aI7979
aI23406
aI14780
aI3198
aI3456
aI18121
aI22834
aI17960
aI17995
aI9303
aI1387
aI20749
aI9846
aI15612
aI16275
aI7699
aI8724
aI10049
aI24071
aI10825
aI4982
aI16850
aI12837
aI662
aI13474
aI19421
aI7001
aI9361
aI8920
aI12547
aI20040
aI22835
aI588
aI4648
aI4363
aI4493
aI4021
aI24103
aI18467
aI19239
aI19490
aI18101
aI8146
aI12517
aI17488
aI22755
aI18446
aI5151
aI10369
aI7385
aI21344
aI862
aI15757
aI21936
aI16998
aI16242
aI16896
aI11431
aI9021
aI21367
aI10330
aI20193
aI20642
aI11467
aI21327
aI21386
aI19722
aI18844
aI12976
aI23382
aI22158
aI13827
aI15505
aI21940
aI19380
aI17883
aI14733
aI16620
aI14420
aI15501
aI11709
aI8917
aI9775
aI8697
aI9755
aI3993
aI8517
aI24005
aI4052
aI21705
aI15189
aI23439
aI23166
aI1383
aI21005
aI7563
aI15172
aI5219
aI11025
aI13256
aI2934
aI12554
aI19832
aI7959
aI19543
aI14196
aI6031
aI12117
aI23250
aI311
aI5312
aI159
aI7486
aI19309
aI21419
aI19412
aI11809
aI4386
aI16551
aI6629
aI10863
aI19245
aI13678
aI6405
aI23261
aI14696
aI14136
aI17772
aI10241
aI22010
aI4422
aI5386
aI1192
aI22812
aI22256
aI22024
aI14644
aI18811
aI9465
aI23856
aI8657
aI9913
aI18255
aI5383
aI22620
aI16240
aI15126
aI22529
aI20237
aI21750
aI15147
aI18874
aI17982
aI18102
aI17482
aI22585
aI9710
aI6981
aI85
aI13733
aI5223
aI9486
aI12831
aI15864
aI4800
aI11592
aI14835
aI24169
aI10916
aI3113
aI1686
aI8446
aI23330
aI21825
aI615
aI6514
aI21732
aI22477
aI9263
aI11684
aI1972
aI17798
aI14094
aI16474
aI21248
aI7051
aI12769
aI18693
aI16892
aI5315
aI17200
aI20507
aI19951
aI10836
aI11493
aI24098
aI15460
aI8504
aI21147
aI8475
aI19603
aI17976
aI7656
aI2377
aI172
aI8853
aI22951
aI4911
aI1410
aI3935
aI16604
aI19323
aI12480
aI11341
aI10277
aI17558
aI10037
aI10868
aI8889
aI8912
aI14936
aI9513
aI9949
aI19887
aI14649
aI18642
aI13732
aI22317
aI17929
aI3090
aI16443
aI16499
aI23469
aI2176
aI17765
aI15681
aI10666
aI21258
aI23221
aI14505
aI5011
aI11850
aI6083
aI23868
aI13689
aI9864
aI22422
aI17193
aI14183
aI17470
aI19587
aI4605
aI22235
aI12823
aI19905
aI9245
aI23256
aI21082
aI10716
aI17582
aI6681
aI300
aI22380
aI16285
aI3689
aI17595
aI384
aI8821
aI23169
aI5319
aI785
aI14571
aI13819
aI17341
aI21308
aI22740
aI12463
aI14870
aI21030
aI10567
aI17311
aI17440
aI3057
aI2276
aI10574
aI18909
aI9299
aI11934
aI15840
aI21456
aI18214
aI7185
aI2052
aI18972
aI18674
aI13682
aI10033
aI12688
aI1213
aI17386
aI8656
aI18626
aI18473
aI24176
aI8744
aI5047
aI18998
aI23435
aI4935
aI14555
aI3103
aI6384
aI7350
aI21170
aI22680
aI15561
aI19275
aI19250
aI22698
aI7540
aI14485
aI17786
aI1391
aI6966
aI23404
aI12758
aI16149
aI13319
aI22694
aI21116
aI6214
aI17058
aI14581
aI11413
aI3594
aI16454
aI15610
aI551
aI18299
aI6624
aI20342
aI24270
aI15938
aI19376
aI10506
aI20151
aI13061
aI19414
aI6420
aI15098
aI21106
aI16765
aI1943
aI437
aI1262
aI9412
aI6450
aI10539
aI3359
aI11527
aI1221
aI10015
aI16353
aI14308
aI12681
aI4101
aI15436
aI10644
aI16835
aI15719
aI19876
aI23592
aI19996
aI8720
aI18036
aI5098
aI10785
aI7662
aI6018
aI20565
aI1795
aI1868
aI4807
aI8473
aI20006
aI7457
aI20379
aI22534
aI6025
aI20534
aI2746
aI10174
aI5756
aI6180
aI20949
aI8131
aI1979
aI11469
aI20934
aI24097
aI19736
aI6193
aI12967
aI7652
aI2742
aI14993
aI9349
aI19983
aI15387
aI14035
aI4131
aI17584
aI22029
aI22732
aI5142
aI1123
aI14193
aI18617
aI20788
aI14871
aI18093
aI19814
aI4888
aI6824
aI7354
aI2245
aI22564
aI7695
aI17826
aI8419
aI14425
aI21657
aI10634
aI15692
aI22678
aI19734
aI20139
aI21426
aI17577
aI3773
aI21020
aI10959
aI15236
aI973
aI7636
aI19933
aI16142
aI15916
aI6080
aI23479
aI21182
aI18716
aI23999
aI2454
aI15162
aI13216
aI14784
aI19735
aI125
aI22677
aI1419
aI16264
aI21553
aI22307
aI1735
aI8953
aI10126
aI16568
aI17387
aI15195
aI3995
aI13578
aI8294
aI11168
aI3158
aI16394
aI22268
aI3859
aI5953
aI15491
aI5205
aI5750
aI10757
aI12296
aI1125
aI17967
aI18429
aI14861
aI23935
aI32
aI2025
aI22752
aI6713
aI8020
aI4084
aI3532
aI7017
aI20432
aI23204
aI15924
aI6847
aI8794
aI6257
aI13386
aI22591
aI19124
aI23122
aI4748
aI13023
aI4660
aI16723
aI20833
aI1808
aI6381
aI9453
aI19918
aI11826
aI7654
aI5635
aI17609
aI19465
aI1026
aI12764
aI20455
aI7633
aI21652
aI23728
aI20697
aI23387
aI14737
aI15153
aI3657
aI23113
aI9906
aI18416
aI20655
aI185
aI5371
aI16548
aI4066
aI17762
aI22001
aI14864
aI10620
aI18241
aI15084
aI11852
aI7588
aI6767
aI2435
aI1578
aI19730
aI12697
aI9722
aI1399
aI12857
aI10398
aI15059
aI7331
aI22119
aI5495
aI18612
aI5742
aI22757
aI10798
aI4609
aI15834
aI9332
aI4798
aI8379
aI18284
aI20255
aI5978
aI1986
aI7715
aI7163
aI3963
aI16818
aI15252
aI24273
aI11480
aI3574
aI7995
aI13029
aI5019
aI1780
aI4967
aI21552
aI7511
aI14939
aI16335
aI2296
aI18249
aI16934
aI7941
aI15030
aI23809
aI14817
aI21276
aI18340
aI10352
aI7606
aI7253
aI3700
aI13317
aI10592
aI10558
aI13675
aI908
aI2973
aI6693
aI13093
aI5961
aI778
aI20033
aI365
aI17745
aI17519
aI9264
aI10004
aI22624
aI7795
aI18148
aI3056
aI4586
aI20842
aI4198
aI20175
aI4810
aI6803
aI297
aI22212
aI18212
aI19187
aI6798
aI17478
aI14159
aI10419
aI3879
aI10578
aI17109
aI23816
aI22009
aI14406
aI14021
aI16614
aI6125
aI4070
aI15124
aI9478
aI3706
aI569
aI10291
aI1372
aI14337
aI22336
aI3095
aI18644
aI22802
aI1172
aI15006
aI13309
aI10735
aI8706
aI5336
aI2360
aI9238
aI23992
aI10776
aI9392
aI18765
aI20540
aI10323
aI4501
aI14484
aI5476
aI6620
aI22592
aI3124
aI1495
aI11358
aI3954
aI9978
aI24043
aI5914
aI2579
aI5770
aI19029
aI10073
aI1304
aI19670
aI23695
aI17942
aI1873
aI3494
aI15300
aI12482
aI19787
aI21776
aI10829
aI2193
aI20484
aI20987
aI5454
aI11871
aI12183
aI23696
aI10760
aI9652
aI2644
aI13217
aI10000
aI11144
aI14300
aI9227
aI19284
aI8240
aI5279
aI16380
aI19225
aI19824
aI16113
aI8002
aI1748
aI9771
aI23493
aI4688
aI1985
aI19499
aI2036
aI7069
aI7697
aI19888
aI2396
aI6998
aI15245
aI5037
aI7611
aI18677
aI10926
aI24194
aI6129
aI7293
aI12475
aI19947
aI14489
aI20211
aI8827
aI133
aI10247
aI2662
aI24207
aI17890
aI815
aI2024
aI1520
aI21057
aI18696
aI1038
aI11510
aI12865
aI10114
aI20728
aI21709
aI19635
aI14029
aI12726
aI15613
aI2197
aI21744
aI14588
aI16670
aI23905
aI7004
aI647
aI18927
aI9748
aI19661
aI9042
aI16025
aI21475
aI3474
aI12751
aI8961
aI10123
aI16497
aI23962
aI4135
aI5194
aI15507
aI21101
aI20538
aI20430
aI14985
aI22074
aI7130
aI13094
aI14430
aI13896
aI350
aI21908
aI23692
aI1711
aI1244
aI12053
aI5545
aI10279
aI5405
aI897
aI7671
aI4513
aI4391
aI18550
aI8862
aI15765
aI22086
aI20704
aI12048
aI18667
aI11022
aI16332
aI6484
aI16715
aI3368
aI23649
aI611
aI23963
aI11573
aI15795
aI3055
aI23748
aI19858
aI14453
aI5032
aI1369
aI12446
aI21179
aI5508
aI13324
aI11855
aI18905
aI8581
aI8134
aI1375
aI4979
aI19995
aI6296
aI4965
aI7217
aI9896
aI10413
aI21500
aI11866
aI6932
aI20876
aI24288
aI2885
aI1900
aI13100
aI5468
aI7233
aI10159
aI6500
aI21570
aI13229
aI13346
aI19646
aI15423
aI14488
aI15949
aI1647
aI8601
aI423
aI6337
aI563
aI7053
aI8464
aI11479
aI22674
aI6889
aI8023
aI4579
aI395
aI7890
aI12571
aI9934
aI3659
aI13299
aI9848
aI11632
aI3975
aI3872
aI5562
aI7922
aI1790
aI6568
aI10777
aI9942
aI9530
aI1652
aI19549
aI24118
aI21659
aI9800
aI4412
aI14161
aI19117
aI14131
aI2136
aI21898
aI7815
aI13314
aI21192
aI17598
aI10679
aI19254
aI16448
aI9144
aI476
aI3728
aI8867
aI22584
aI16060
aI16796
aI7104
aI15216
aI23646
aI13092
aI10764
aI6838
aI12450
aI17590
aI14598
aI16075
aI9309
aI2971
aI23708
aI21181
aI2297
aI16465
aI313
aI3799
aI10903
aI4985
aI11320
aI23541
aI22476
aI6535
aI13931
aI10618
aI5202
aI18413
aI5224
aI16265
aI16677
aI20804
aI7886
aI15192
aI9220
aI21644
aI12440
aI23249
aI2171
aI7498
aI14378
aI23139
aI9878
aI7892
aI15697
aI15123
aI20107
aI9334
aI16898
aI4678
aI5923
aI11650
aI22690
aI18549
aI18733
aI8205
aI23675
aI1633
aI7586
aI12679
aI9058
aI16437
aI23680
aI2800
aI23823
aI19708
aI11234
aI11267
aI4086
aI7018
aI4712
aI10243
aI22693
aI17978
aI21356
aI11875
aI12087
aI22191
aI22883
aI19582
aI21830
aI22327
aI11061
aI9281
aI250
aI21722
aI4917
aI5295
aI12358
aI7196
aI16958
aI17839
aI3645
aI23482
aI10301
aI3321
aI10795
aI13135
aI11427
aI16501
aI8754
aI921
aI23363
aI16731
aI6464
aI17868
aI401
aI18168
aI15210
aI9219
aI11554
aI18401
aI22721
aI13945
aI16137
aI24181
aI20667
aI9056
aI12872
aI15104
aI403
aI5632
aI14211
aI22278
aI21114
aI15475
aI5848
aI9312
aI3881
aI3895
aI22647
aI17326
aI22388
aI22298
aI23662
aI1669
aI14796
aI16173
aI18388
aI23317
aI14515
aI7397
aI8998
aI16841
aI22070
aI5541
aI22691
aI5148
aI14498
aI11235
aI14321
aI14437
aI23002
aI1177
aI23586
aI21751
aI18252
aI6628
aI14095
aI18788
aI6178
aI442
aI12873
aI14614
aI18469
aI13648
aI4498
aI15824
aI7042
aI24174
aI19481
aI10386
aI19389
aI12181
aI10692
aI1384
aI22218
aI96
aI10198
aI13811
aI13683
aI15148
aI20692
aI1062
aI20613
aI12868
aI13962
aI14427
aI21489
aI15942
aI10378
aI22832
aI292
aI1570
aI8618
aI16256
aI9999
aI6171
aI22474
aI4631
aI5582
aI8448
aI7068
aI21090
aI13837
aI15122
aI2851
aI14276
aI4799
aI21607
aI10756
aI21929
aI23922
aI4835
aI16340
aI15443
aI1549
aI18593
aI7649
aI5546
aI18955
aI4327
aI10494
aI631
aI141
aI17847
aI4034
aI1460
aI13855
aI19404
aI23976
aI4125
aI21488
aI16852
aI9354
aI2048
aI21328
aI1294
aI12474
aI3415
aI13137
aI2464
aI9830
aI11834
aI17646
aI15572
aI19055
aI5388
aI4847
aI13164
aI5452
aI23610
aI20838
aI5834
aI21658
aI21511
aI21368
aI22458
aI15517
aI6317
aI13677
aI12184
aI20727
aI19331
aI18038
aI922
aI2703
aI10782
aI15154
aI5608
aI12936
aI8094
aI19864
aI15003
aI1263
aI22338
aI22224
aI21265
aI15472
aI2123
aI21885
aI8807
aI23385
aI13766
aI19818
aI4626
aI14020
aI1457
aI14956
aI21098
aI12754
aI18133
aI12647
aI4824
aI23352
aI7358
aI4450
aI12171
aI15469
aI8102
aI3225
aI21697
aI6658
aI2535
aI9607
aI21274
aI12683
aI11559
aI6846
aI9995
aI5469
aI10246
aI18387
aI13345
aI3512
aI9154
aI4443
aI12527
aI14121
aI18378
aI21926
aI21562
aI23116
aI24287
aI18893
aI15105
aI23596
aI5568
aI15913
aI5716
aI22266
aI15672
aI10793
aI11012
aI21807
aI12981
aI20609
aI4954
aI7251
aI20798
aI5653
aI4376
aI13285
aI7249
aI24126
aI13410
aI11604
aI15133
aI18372
aI18585
aI4108
aI19285
aI12485
aI841
aI17062
aI4774
aI14199
aI18976
aI11128
aI18513
aI8119
aI11143
aI16520
aI4466
aI22028
aI7344
aI8880
aI5814
aI17380
aI11099
aI15665
aI21432
aI14088
aI12983
aI16610
aI1106
aI22468
aI22395
aI17164
aI8394
aI17632
aI21484
aI1136
aI687
aI20699
aI17370
aI2572
aI17615
aI7448
aI10992
aI6531
aI748
aI7286
aI12316
aI3923
aI624
aI18055
aI22482
aI2135
aI2665
aI13763
aI16086
aI3855
aI20809
aI4123
aI20768
aI4300
aI14642
aI16045
aI11750
aI9151
aI16688
aI6457
aI4154
aI17071
aI21383
aI10454
aI11120
aI129
aI14738
aI16444
aI21449
aI14169
aI5878
aI20682
aI17181
aI4482
aI19021
aI10240
aI11172
aI17633
aI6215
aI20346
aI9704
aI3743
aI3948
aI1535
aI16713
aI116
aI12763
aI20615
aI2757
aI23128
aI2518
aI3690
aI14309
aI699
aI17150
aI15318
aI7898
aI14102
aI9562
aI14206
aI21667
aI4171
aI20712
aI2436
aI15081
aI22671
aI12494
aI14666
aI10562
aI11770
aI15810
aI2639
aI18780
aI2585
aI21318
aI21775
aI21197
aI15223
aI19397
aI9520
aI1150
aI1267
aI17081
aI16043
aI15992
aI20144
aI13820
aI17313
aI10853
aI4859
aI4278
aI19005
aI20583
aI17870
aI11900
aI7178
aI20541
aI22261
aI18278
aI8890
aI18900
aI20264
aI15830
aI5837
aI12067
aI6890
aI2218
aI18543
aI18699
aI5403
aI5648
aI17714
aI717
aI8823
aI21832
aI21023
aI2900
aI13530
aI19022
aI20354
aI4006
aI23334
aI7211
aI9883
aI12233
aI19028
aI8452
aI4408
aI18766
aI2775
aI13698
aI11422
aI92
aI1860
aI7854
aI23055
aI12989
aI150
aI18995
aI4454
aI20320
aI14245
aI11776
aI10890
aI10338
aI16924
aI83
aI4657
aI13225
aI2589
aI23155
aI3065
aI24039
aI16730
aI18872
aI6743
aI11844
aI18506
aI14027
aI16208
aI305
aI4020
aI3861
aI10117
aI7256
aI2673
aI15786
aI2939
aI5294
aI8018
aI5348
aI22016
aI23137
aI17002
aI14638
aI17525
aI14625
aI9408
aI13767
aI5034
aI1379
aI6559
aI14892
aI1413
aI11109
aI13431
aI16453
aI10414
aI14141
aI11463
aI10706
aI15409
aI6060
aI6778
aI17671
aI7966
aI10773
aI6465
aI11679
aI11451
aI14843
aI5867
aI3066
aI14810
aI3007
aI2816
aI11800
aI9970
aI22428
aI11090
aI6849
aI17417
aI16184
aI8163
aI15883
aI12253
aI16953
aI21855
aI5254
aI13786
aI10397
aI20939
aI2809
aI967
aI23735
aI24067
aI7661
aI22722
aI18720
aI4618
aI16517
aI11981
aI20474
aI7037
aI2675
aI504
aI20869
aI1239
aI15301
aI19846
aI4246
aI3681
aI15628
aI17565
aI20376
aI17497
aI21534
aI22738
aI11182
aI18491
aI21415
aI6602
aI22927
aI15512
aI20755
aI12094
aI24124
aI12500
aI14215
aI3597
aI7353
aI2386
aI1961
aI12502
aI22250
aI15299
aI8896
aI11145
aI22192
aI361
aI16186
aI2151
aI15979
aI23183
aI1786
aI12538
aI19696
aI20802
aI6108
aI1636
aI4717
aI18948
aI21159
aI4039
aI2463
aI13453
aI8036
aI1811
aI20426
aI566
aI15662
aI17012
aI21270
aI2542
aI23959
aI17710
aI16427
aI13455
aI9929
aI5860
aI16544
aI1519
aI18160
aI4096
aI15804
aI4514
aI16891
aI12123
aI3767
aI6475
aI16498
aI4046
aI7333
aI10732
aI15846
aI45
aI2406
aI2524
aI488
aI726
aI5614
aI17723
aI23656
aI21510
aI16260
aI3748
aI3885
aI8922
aI8832
aI23528
aI13796
aI18866
aI16066
aI6204
aI14899
aI7417
aI19718
aI2991
aI5474
aI11695
aI9396
aI11095
aI8276
aI3870
aI23839
aI19740
aI694
aI20831
aI562
aI12686
aI7962
aI16512
aI15441
aI22075
aI7244
aI15727
aI11494
aI2372
aI763
aI13653
aI10580
aI6893
aI9206
aI18170
aI3600
aI23131
aI3176
aI4576
aI16799
aI6716
aI11547
aI17911
aI15762
aI22603
aI7737
aI23920
aI5195
aI6015
aI12292
aI11117
aI17266
aI2935
aI11088
aI7710
aI14951
aI17238
aI7906
aI13275
aI12428
aI15323
aI11150
aI1230
aI13195
aI11556
aI10431
aI7631
aI19383
aI9523
aI18072
aI12285
aI20813
aI2929
aI20736
aI3878
aI1227
aI10139
aI23465
aI2993
aI21494
aI7154
aI9185
aI8027
aI17651
aI17207
aI15611
aI12929
aI2555
aI14587
aI3567
aI22251
aI5408
aI1373
aI5701
aI13293
aI21133
aI1774
aI16337
aI4948
aI24245
aI14057
aI23054
aI21086
aI18140
aI19898
aI19754
aI12642
aI12239
aI3772
aI18640
aI8910
aI12614
aI4950
aI18332
aI20042
aI8791
aI2105
aI6354
aI21937
aI23234
aI9534
aI8372
aI18979
aI11286
aI19113
aI5755
aI8746
aI17992
aI4043
aI7193
aI18127
aI4306
aI3072
aI5247
aI6066
aI310
aI12691
aI4042
aI8307
aI5889
aI22524
aI20016
aI9922
aI20967
aI2434
aI4673
aI2240
aI1692
aI9535
aI1932
aI2389
aI12057
aI12435
aI14988
aI2830
aI16619
aI950
aI1140
aI9084
aI21400
aI4274
aI18817
aI4525
aI17694
aI14991
aI12079
aI8430
aI22128
aI2286
aI1307
aI6191
aI9867
aI8491
aI10319
aI3577
aI2178
aI1710
aI3035
aI6797
aI22058
aI11000
aI13912
aI770
aI11993
aI1617
aI12467
aI5014
aI1588
aI11048
aI11335
aI10315
aI9810
aI4904
aI21878
aI15410
aI14529
aI549
aI15564
aI8570
aI16887
aI19625
aI4594
aI7619
aI19741
aI674
aI7449
aI19464
aI11925
aI15520
aI21794
aI4876
aI9660
aI11904
aI23080
aI21381
aI3525
aI18855
aI5104
aI2485
aI9539
aI20308
aI3994
aI23660
aI20940
aI13680
aI8708
aI13654
aI13226
aI13846
aI1011
aI14469
aI1030
aI14343
aI8584
aI11611
aI5597
aI15708
aI16020
aI10675
aI10815
aI4285
aI9187
aI15048
aI13263
aI20267
aI2736
aI1615
aI11107
aI22201
aI22979
aI5567
aI9894
aI7252
aI3837
aI17914
aI21010
aI20999
aI19109
aI23789
aI2988
aI12204
aI12961
aI12584
aI11501
aI2987
aI6971
aI16334
aI10672
aI5143
aI5707
aI11051
aI17541
aI6454
aI8654
aI3446
aI5272
aI18659
aI15496
aI4614
aI10658
aI13036
aI6011
aI22499
aI18840
aI14407
aI19619
aI2711
aI15597
aI6947
aI19607
aI7884
aI11008
aI11265
aI20269
aI16262
aI4330
aI3647
aI11151
aI7797
aI12581
aI20394
aI8026
aI7846
aI7622
aI16828
aI6351
aI11500
aI23040
aI11804
aI4038
aI13792
aI2670
aI11716
aI10203
aI20766
aI19862
aI11036
aI11418
aI12391
aI10969
aI14227
aI21597
aI1043
aI2147
aI4053
aI11503
aI18572
aI19838
aI8520
aI14715
aI19507
aI16383
aI11436
aI13606
aI22367
aI2840
aI16523
aI15400
aI17778
aI10832
aI3275
aI2940
aI2381
aI3833
aI20170
aI1838
aI7033
aI7401
aI10680
aI3623
aI14917
aI11996
aI3671
aI2028
aI20440
aI16956
aI1162
aI20691
aI10670
aI3207
aI8875
aI12409
aI23410
aI11329
aI18723
aI7927
aI6521
aI16181
aI14497
aI9579
aI10840
aI19870
aI7585
aI18180
aI14387
aI6094
aI17517
aI177
aI13953
aI11371
aI22573
aI4091
aI1084
aI19555
aI20296
aI21429
aI3783
aI9095
aI2593
aI18743
aI17684
aI1746
aI10029
aI14799
aI2822
aI14270
aI6489
aI3421
aI11044
aI67
aI13303
aI11522
aI1951
aI21439
aI2598
aI20093
aI19125
aI9628
aI13213
aI21399
aI16016
aI4442
aI6003
aI22541
aI7559
aI11941
aI21821
aI5064
aI6290
aI19975
aI4137
aI15375
aI19878
aI18877
aI19650
aI14965
aI11653
aI1098
aI2904
aI20494
aI10606
aI2078
aI1438
aI2691
aI10489
aI456
aI15970
aI3244
aI16698
aI4871
aI8277
aI7889
aI23751
aI20539
aI18695
aI23099
aI14135
aI3017
aI3083
aI31
aI12027
aI18587
aI291
aI2713
aI14948
aI9061
aI21922
aI21287
aI23526
aI3705
aI17247
aI5794
aI8598
aI22222
aI21626
aI22360
aI8370
aI23150
aI6081
aI12103
aI15348
aI16082
aI2629
aI18386
aI4861
aI11180
aI23672
aI6612
aI2303
aI5008
aI17715
aI5446
aI6871
aI14934
aI14686
aI1190
aI16442
aI16379
aI11041
aI2277
aI23685
aI5320
aI16970
aI5974
aI16774
aI24170
aI14137
aI16494
aI3996
aI4480
aI5983
aI17183
aI4728
aI11909
aI19402
aI20573
aI13807
aI3300
aI15089
aI11351
aI14234
aI1725
aI8628
aI15937
aI4083
aI397
aI11375
aI4733
aI23239
aI21251
aI2791
aI23795
aI4172
aI6802
aI3538
aI144
aI9494
aI14018
aI19851
aI5873
aI11631
aI17743
aI17893
aI11740
aI12645
aI23551
aI6951
aI16415
aI15079
aI7433
aI16586
aI1068
aI6861
aI7701
aI14476
aI16735
aI12569
aI4447
aI22037
aI18285
aI21425
aI15074
aI9779
aI3602
aI23036
aI22562
aI9788
aI1845
aI9104
aI14673
aI8006
aI16369
aI5599
aI9992
aI356
aI17643
aI16298
aI19324
aI16672
aI7612
aI14665
aI24258
aI2997
aI6390
aI3940
aI19745
aI10273
aI22547
aI6136
aI839
aI1631
aI10400
aI13574
aI19240
aI6051
aI14698
aI8458
aI8905
aI21428
aI17427
aI5616
aI6527
aI22030
aI5601
aI19874
aI8028
aI11710
aI20011
aI4763
aI19641
aI19966
aI10302
aI3094
aI630
aI15626
aI4738
aI18746
aI5301
aI4667
aI10912
aI18343
aI8638
aI1197
aI1363
aI17843
aI8066
aI15319
aI6392
aI8003
aI5580
aI21720
aI8266
aI20012
aI10055
aI6666
aI1219
aI3411
aI19078
aI8739
aI16363
aI23565
aI20115
aI1396
aI5626
aI15401
aI7805
aI6689
aI21497
aI18680
aI11982
aI12977
aI142
aI12566
aI10486
aI399
aI1638
aI5850
aI11363
aI1151
aI22038
aI20747
aI14385
aI19931
aI1411
aI14995
aI13450
aI17490
aI8262
aI8151
aI741
aI2438
aI4104
aI7670
aI2688
aI4862
aI5760
aI47
aI12044
aI4639
aI21373
aI2908
aI18447
aI3272
aI19444
aI19371
aI7593
aI6304
aI7778
aI11601
aI6124
aI4453
aI21226
aI1440
aI12738
aI98
aI6155
aI19082
aI6148
aI8763
aI16502
aI14846
aI22982
aI17897
aI11837
aI189
aI20671
aI894
aI14442
aI13707
aI22973
aI18564
aI8851
aI9694
aI1922
aI17990
aI8334
aI14894
aI19174
aI8142
aI12675
aI20578
aI8363
aI214
aI12331
aI4578
aI6536
aI4387
aI706
aI3544
aI2525
aI3806
aI1689
aI1589
aI10362
aI19141
aI13934
aI19415
aI4228
aI21902
aI7127
aI7393
aI9122
aI20036
aI634
aI4110
aI8423
aI18512
aI2534
aI9217
aI5891
aI3358
aI9706
aI15555
aI15759
aI16783
aI6745
aI21453
aI23892
aI18056
aI6176
aI3599
aI3858
aI734
aI5425
aI793
aI8959
aI6156
aI7267
aI15789
aI20077
aI22374
aI11226
aI15966
aI5001
aI7322
aI22372
aI20160
aI20577
aI6205
aI16856
aI17758
aI4209
aI15004
aI22989
aI5812
aI4907
aI9046
aI17760
aI21811
aI23083
aI12693
aI8611
aI18986
aI7948
aI11203
aI21256
aI1903
aI1844
aI7139
aI18075
aI8560
aI165
aI8694
aI6168
aI23013
aI7241
aI13542
aI6349
aI15565
aI19970
aI22430
aI8719
aI13624
aI13662
aI22807
aI3851
aI14044
aI3391
aI5539
aI4625
aI15792
aI6017
aI22056
aI14441
aI23655
aI20399
aI23209
aI3085
aI22569
aI15217
aI12840
aI22827
aI623
aI22308
aI3039
aI12974
aI10605
aI14320
aI11688
aI10344
aI3931
aI8228
aI9011
aI5697
aI3302
aI8335
aI20765
aI17810
aI6344
aI8407
aI16386
aI19263
aI15767
aI19216
aI21739
aI6764
aI20316
aI20654
aI23538
aI6184
aI6070
aI4512
aI12215
aI21108
aI7386
aI19980
aI6606
aI14226
aI22509
aI3751
aI23891
aI9100
aI22630
aI5146
aI20179
aI23936
aI14574
aI4913
aI24121
aI17816
aI21379
aI8316
aI3043
aI4013
aI11939
aI23554
aI21162
aI18184
aI8930
aI16762
aI22032
aI18577
aI4236
aI17096
aI19382
aI18063
aI19985
aI2006
aI1218
aI23154
aI16684
aI2475
aI10
aI15971
aI19677
aI960
aI20397
aI19941
aI5643
aI5033
aI13343
aI17008
aI16721
aI10043
aI17692
aI14037
aI3936
aI13951
aI19597
aI21801
aI12847
aI4747
aI19604
aI21107
aI10932
aI10032
aI2751
aI22638
aI19937
aI11584
aI2411
aI22810
aI14844
aI20790
aI1518
aI3760
aI11497
aI23153
aI4279
aI9624
aI10883
aI23825
aI18884
aI6138
aI18442
aI3331
aI15843
aI22925
aI14635
aI19339
aI17606
aI16676
aI7143
aI22303
aI22339
aI1474
aI1482
aI2492
aI3400
aI10172
aI22168
aI22877
aI1053
aI12076
aI16609
aI22977
aI11774
aI20161
aI11159
aI9566
aI14346
aI21000
aI22300
aI1313
aI1582
aI21191
aI19534
aI23832
aI9679
aI6842
aI20836
aI15963
aI17791
aI10367
aI2291
aI24178
aI21831
aI9673
aI5623
aI1280
aI3519
aI12065
aI10569
aI22084
aI12460
aI8952
aI13789
aI10546
aI10645
aI1826
aI12009
aI7627
aI16704
aI8904
aI16862
aI19810
aI13749
aI394
aI22115
aI20009
aI11415
aI21142
aI15056
aI224
aI4707
aI2771
aI9752
aI10412
aI9754
aI2202
aI16095
aI18663
aI15702
aI4468
aI10726
aI21950
aI10353
aI9413
aI19626
aI19617
aI9910
aI7571
aI3110
aI3808
aI5156
aI10149
aI6571
aI12496
aI4259
aI4545
aI4701
aI4590
aI12743
aI13914
aI10375
aI2096
aI11729
aI6163
aI276
aI24193
aI23424
aI16179
aI19760
aI7894
aI2311
aI23320
aI2548
aI20874
aI7970
aI15114
aI12925
aI15669
aI16768
aI21812
aI4201
aI3699
aI16378
aI12720
aI5625
aI6246
aI4718
aI103
aI17034
aI5212
aI2870
aI21422
aI20628
aI6613
aI20908
aI7072
aI9205
aI5543
aI9050
aI11814
aI13754
aI12586
aI17854
aI2187
aI16112
aI9567
aI10639
aI8337
aI8562
aI3161
aI18326
aI2842
aI13946
aI14197
aI15343
aI12197
aI18691
aI2728
aI19616
aI3868
aI1542
aI13517
aI7118
aI2387
aI20123
aI2826
aI21600
aI9121
aI402
aI6035
aI1697
aI19122
aI8217
aI17291
aI22775
aI19110
aI19453
aI6804
aI8489
aI5277
aI14705
aI2658
aI15693
aI2517
aI13387
aI20369
aI10766
aI1887
aI11433
aI19742
aI8074
aI15177
aI18832
aI11364
aI20894
aI15167
aI12674
aI2213
aI9959
aI22071
aI21262
aI15606
aI20105
aI4574
aI14487
aI8056
aI15297
aI18560
aI12648
aI14919
aI6898
aI18248
aI9994
aI4596
aI2167
aI22590
aI4364
aI18527
aI19643
aI1933
aI2509
aI14981
aI13428
aI12459
aI534
aI17433
aI18605
aI6934
aI19945
aI7945
aI1088
aI23090
aI3517
aI354
aI16893
aI11096
aI24186
aI126
aI13977
aI18219
aI18410
aI22789
aI8565
aI4009
aI13822
aI19821
aI5053
aI21382
aI17013
aI22494
aI4044
aI10498
aI23365
aI18778
aI22211
aI6517
aI17242
aI19681
aI17465
aI1258
aI23740
aI8486
aI19229
aI6962
aI22051
aI2384
aI30
aI21783
aI23819
aI19044
aI21332
aI15807
aI19407
aI17321
aI6256
aI9191
aI12817
aI15461
aI22286
aI23485
aI13447
aI12759
aI20974
aI899
aI22417
aI2600
aI18672
aI21189
aI13117
aI20194
aI22688
aI14931
aI23243
aI23543
aI9107
aI13339
aI20713
aI15009
aI16750
aI18561
aI22679
aI8676
aI4677
aI12207
aI2955
aI11175
aI18001
aI5358
aI16722
aI17246
aI23970
aI4925
aI265
aI6773
aI17227
aI7634
aI23245
aI9485
aI16210
aI19487
aI16000
aI23532
aI2271
aI15825
aI6389
aI16599
aI15835
aI23405
aI1195
aI10619
aI9244
aI3902
aI13793
aI17219
aI1489
aI14186
aI7115
aI8037
aI5959
aI16592
aI21640
aI4761
aI11065
aI11670
aI7067
aI9009
aI14509
aI22864
aI12063
aI2315
aI6202
aI13203
aI12013
aI9773
aI9096
aI673
aI23501
aI14994
aI21123
aI20924
aI1857
aI18217
aI12928
aI430
aI9457
aI23505
aI11678
aI13289
aI2909
aI15357
aI8540
aI8530
aI2161
aI13525
aI18898
aI8508
aI4366
aI23430
aI2835
aI20338
aI8359
aI23522
aI13121
aI4709
aI18398
aI8499
aI19781
aI21409
aI11256
aI13722
aI17152
aI7909
aI22568
aI8593
aI20212
aI9175
aI19710
aI15487
aI18233
aI13458
aI18821
aI12709
aI23714
aI15485
aI10963
aI6408
aI15549
aI20081
aI12942
aI16838
aI363
aI15670
aI23722
aI22133
aI4202
aI15094
aI24022
aI14072
aI14926
aI17800
aI11314
aI14853
aI10975
aI8358
aI23255
aI14426
aI15152
aI22946
aI13356
aI10800
aI19282
aI19207
aI5738
aI9834
aI20476
aI22716
aI8888
aI7275
aI10778
aI23671
aI1557
aI10331
aI508
aI12131
aI22852
aI21954
aI22355
aI14968
aI21677
aI9909
aI4998
aI4711
aI24057
aI18541
aI20113
aI4061
aI15855
aI9807
aI2080
aI675
aI16506
aI9098
aI2845
aI3341
aI23942
aI6130
aI18254
aI16636
aI4076
aI20125
aI11318
aI18173
aI33
aI9866
aI20773
aI15312
aI2951
aI20825
aI17965
aI9688
aI13222
aI20360
aI21503
aI18445
aI17789
aI15876
aI8082
aI475
aI13695
aI3332
aI15828
aI21617
aI17921
aI9840
aI15921
aI21818
aI22825
aI23711
aI17825
aI2446
aI12310
aI2881
aI20734
aI10801
aI17056
aI6740
aI23743
aI24073
aI1695
aI17676
aI17983
aI5384
aI1057
aI21384
aI14506
aI16333
aI1398
aI689
aI20252
aI21558
aI18109
aI13472
aI19901
aI13968
aI6278
aI9483
aI12180
aI5931
aI9543
aI12382
aI19058
aI16398
aI13290
aI3974
aI9982
aI21769
aI5899
aI8071
aI1266
aI16018
aI4379
aI8541
aI11713
aI9289
aI20169
aI21731
aI21504
aI19248
aI12611
aI17294
aI1458
aI11191
aI18411
aI23452
aI16269
aI5877
aI22227
aI9407
aI166
aI13816
aI15118
aI6829
aI3968
aI3997
aI4624
aI15630
aI11407
aI2070
aI6533
aI18847
aI7707
aI18848
aI9681
aI124
aI19584
aI7921
aI18083
aI7107
aI12402
aI15160
aI23704
aI22393
aI16032
aI21943
aI18257
aI4250
aI6160
aI16175
aI1833
aI5805
aI10446
aI2488
aI2764
aI724
aI4383
aI3230
aI20433
aI19692
aI2476
aI14902
aI23700
aI20878
aI20020
aI10011
aI12237
aI15588
aI16690
aI3950
aI13510
aI13521
aI1552
aI1797
aI21165
aI15440
aI1276
aI14742
aI12314
aI11821
aI15761
aI794
aI6501
aI1446
aI13063
aI6567
aI15836
aI18264
aI20921
aI6182
aI18836
aI7672
aI9794
aI23912
aI1378
aI4399
aI15513
aI22377
aI755
aI20944
aI20977
aI17764
aI15116
aI4218
aI8049
aI3435
aI17879
aI16251
aI17368
aI7986
aI6271
aI16821
aI17369
aI5241
aI20350
aI17397
aI4002
aI8873
aI13960
aI19987
aI14918
aI20203
aI16521
aI13110
aI954
aI10031
aI4869
aI18281
aI16920
aI10970
aI20801
aI11201
aI3018
aI46
aI11512
aI8053
aI11388
aI23400
aI2306
aI22971
aI8197
aI4098
aI17142
aI18890
aI2107
aI20148
aI16273
aI320
aI6917
aI15514
aI14874
aI3467
aI10360
aI13519
aI15467
aI21078
aI11321
aI5043
aI7517
aI1228
aI14811
aI14856
aI14776
aI7487
aI22901
aI17940
aI9462
aI36
aI4283
aI14104
aI8893
aI5378
aI6064
aI23190
aI15878
aI8179
aI789
aI8043
aI16886
aI3795
aI5108
aI5035
aI11761
aI2155
aI18229
aI21884
aI3269
aI1509
aI4634
aI9411
aI14971
aI22796
aI21486
aI4132
aI21559
aI10423
aI23181
aI5638
aI4118
aI8762
aI1717
aI5012
aI499
aI22654
aI5044
aI8087
aI8595
aI11147
aI5922
aI1028
aI19039
aI22581
aI11447
aI23033
aI18196
aI5067
aI17543
aI20276
aI105
aI2532
aI5900
aI5016
aI21466
aI10472
aI12052
aI13613
aI18863
aI22518
aI5875
aI18152
aI13715
aI17994
aI5070
aI20922
aI19455
aI15629
aI20441
aI14127
aI21773
aI17534
aI5248
aI16957
aI4003
aI10102
aI6194
aI22404
aI14108
aI2118
aI1171
aI18852
aI590
aI19716
aI13548
aI2784
aI17618
aI7758
aI13643
aI22180
aI2283
aI13016
aI20687
aI15339
aI24158
aI13230
aI15285
aI1881
aI23371
aI7132
aI17572
aI13403
aI872
aI1777
aI6763
aI9893
aI5792
aI8980
aI14792
aI15975
aI20608
aI16763
aI10571
aI8404
aI7807
aI4809
aI2982
aI3924
aI18223
aI2839
aI3897
aI13252
aI10572
aI13852
aI17023
aI1782
aI8406
aI23974
aI4060
aI3951
aI16182
aI20202
aI19743
aI1226
aI17052
aI3210
aI17610
aI22277
aI14906
aI15500
aI1149
aI13639
aI21146
aI5815
aI5592
aI19723
aI15253
aI944
aI6403
aI16524
aI14660
aI2224
aI18668
aI8403
aI3625
aI18730
aI23217
aI21692
aI6197
aI5525
aI3908
aI4721
aI19211
aI3386
aI6792
aI22981
aI3394
aI19365
aI15019
aI15821
aI16965
aI5858
aI17702
aI8051
aI16877
aI4483
aI13908
aI987
aI16232
aI3417
aI16321
aI17379
aI14237
aI11097
aI12222
aI20500
aI23668
aI21758
aI171
aI9641
aI23401
aI14250
aI19204
aI2866
aI12133
aI1506
aI678
aI11701
aI19539
aI23487
aI1036
aI8467
aI23375
aI22773
aI12007
aI10641
aI7245
aI22938
aI19306
aI18030
aI19278
aI18794
aI11738
aI1481
aI7575
aI19978
aI7842
aI11624
aI7232
aI11978
aI18573
aI7348
aI17947
aI4015
aI7991
aI17851
aI15684
aI1461
aI10872
aI10988
aI8097
aI19218
aI14966
aI13200
aI7255
aI527
aI3841
aI10406
aI8940
aI5439
aI3530
aI20923
aI18865
aI14454
aI10404
aI17803
aI23381
aI8093
aI9544
aI2976
aI13493
aI11448
aI23343
aI1185
aI1693
aI3292
aI18034
aI565
aI1942
aI5906
aI11614
aI4022
aI6085
aI18235
aI20079
aI22491
aI3461
aI6726
aI23990
aI11862
aI2849
aI7168
aI14969
aI22866
aI16814
aI24259
aI12747
aI118
aI5800
aI23553
aI12897
aI4817
aI16598
aI14825
aI13408
aI14205
aI6242
aI17420
aI23983
aI19364
aI10678
aI21786
aI13355
aI16854
aI19567
aI15556
aI8330
aI21820
aI2748
aI19335
aI6714
aI12273
aI18094
aI5940
aI14246
aI12199
aI22021
aI13465
aI10150
aI19093
aI4855
aI22449
aI22223
aI10274
aI22920
aI23654
aI422
aI20117
aI21028
aI10096
aI12360
aI23773
aI21958
aI20303
aI15053
aI8296
aI8109
aI22035
aI9447
aI9297
aI9315
aI20464
aI1469
aI20620
aI6674
aI13476
aI24299
aI12877
aI10931
aI17077
aI3986
aI18107
aI23044
aI22758
aI2342
aI6771
aI19988
aI9203
aI12479
aI16272
aI8360
aI4334
aI10158
aI4955
aI4121
aI6979
aI4584
aI17774
aI17251
aI9029
aI20782
aI22479
aI20258
aI15363
aI20751
aI16633
aI3245
aI369
aI12993
aI8714
aI10171
aI3231
aI18067
aI23414
aI23043
aI17624
aI7483
aI12134
aI2441
aI16151
aI1613
aI15445
aI6010
aI7081
aI9251
aI16519
aI3192
aI4865
aI8313
aI7629
aI18053
aI16618
aI22728
aI23068
aI7315
aI18453
aI11240
aI22505
aI18849
aI10260
aI17977
aI17270
aI1935
aI13244
aI23836
aI3447
aI15603
aI10484
aI10376
aI11997
aI5433
aI8718
aI6583
aI2082
aI15822
aI18875
aI8944
aI10346
aI15361
aI212
aI17166
aI7041
aI22962
aI3805
aI8188
aI8413
aI2576
aI8132
aI754
aI5827
aI4298
aI19804
aI12924
aI1510
aI13601
aI20229
aI7942
aI13173
aI22149
aI10438
aI21209
aI23745
aI13286
aI2254
aI19536
aI5127
aI20128
aI12573
aI9260
aI3520
aI24292
aI18609
aI5669
aI15000
aI1064
aI23106
aI1445
aI22685
aI10372
aI2614
aI15619
aI11961
aI23279
aI16317
aI15581
aI23338
aI18779
aI10995
aI8001
aI22319
aI11881
aI18461
aI18195
aI20080
aI6520
aI2097
aI19042
aI17593
aI5102
aI18759
aI11506
aI17442
aI14432
aI19972
aI5173
aI1750
aI13295
aI2584
aI19569
aI14185
aI21343
aI16301
aI20574
aI3713
aI17063
aI20130
aI3073
aI22014
aI1115
aI21676
aI10874
aI21563
aI12682
aI16572
aI5675
aI14524
aI11901
aI693
aI8526
aI15141
aI23192
aI18769
aI12524
aI23954
aI2416
aI5698
aI10479
aI8033
aI9880
aI10460
aI2380
aI18310
aI4302
aI18289
aI22027
aI5086
aI11011
aI7980
aI17869
aI2346
aI22484
aI14036
aI19147
aI14150
aI21302
aI15895
aI10690
aI17198
aI22959
aI21903
aI1032
aI4984
aI14592
aI2120
aI23132
aI2248
aI13828
aI6876
aI14010
aI16655
aI18421
aI10638
aI8127
aI9997
aI8252
aI15799
aI17267
aI14256
aI21768
aI23686
aI989
aI24089
aI11015
aI12735
aI16077
aI8250
aI11082
aI18244
aI2803
aI15171
aI16890
aI21532
aI4548
aI20750
aI4549
aI17475
aI13899
aI23124
aI20124
aI1871
aI14774
aI11247
aI1336
aI19032
aI21530
aI295
aI15650
aI16125
aI22515
aI6379
aI19445
aI14322
aI8308
aI23835
aI11373
aI18639
aI15254
aI2115
aI19363
aI23769
aI21823
aI18242
aI12101
aI23657
aI6566
aI3839
aI906
aI23386
aI12032
aI7799
aI17655
aI22659
aI965
aI16438
aI12350
aI16543
aI2185
aI4245
aI13035
aI14815
aI3122
aI604
aI13999
aI17032
aI1060
aI3717
aI3116
aI16336
aI9072
aI15368
aI17461
aI20887
aI11772
aI18138
aI8010
aI6587
aI5211
aI21962
aI3173
aI22432
aI14153
aI7965
aI18818
aI2686
aI3184
aI21454
aI9088
aI21231
aI23026
aI21390
aI7284
aI5198
aI13490
aI847
aI2358
aI4315
aI5769
aI8881
aI8386
aI1716
aI7704
aI3408
aI14396
aI13369
aI18203
aI9272
aI14289
aI9836
aI13692
aI23845
aI3969
aI1061
aI13498
aI18356
aI10147
aI21925
aI14941
aI4691
aI6588
aI22511
aI2428
aI20452
aI11092
aI40
aI65
aI1264
aI11197
aI18283
aI5503
aI6835
aI5133
aI19801
aI4382
aI17736
aI10983
aI18112
aI9574
aI1295
aI8125
aI3608
aI14358
aI10763
aI10313
aI13466
aI17452
aI20943
aI6801
aI20527
aI8437
aI11637
aI610
aI20875
aI17424
aI2362
aI12352
aI1807
aI18736
aI16003
aI22990
aI9343
aI17698
aI12513
aI4381
aI20901
aI13569
aI14210
aI14049
aI3514
aI8459
aI10838
aI21156
aI11884
aI15229
aI1466
aI10354
aI21905
aI17734
aI21148
aI21330
aI22795
aI7912
aI11354
aI9261
aI1847
aI15306
aI13516
aI9054
aI19936
aI8803
aI13444
aI4843
aI9700
aI23574
aI17351
aI2812
aI10343
aI21514
aI9707
aI10885
aI10628
aI10770
aI4531
aI9019
aI6341
aI14052
aI2391
aI17050
aI12822
aI14401
aI22605
aI19885
aI9804
aI16107
aI15388
aI8813
aI4152
aI3831
aI19825
aI14301
aI22143
aI20867
aI13957
aI23555
aI20702
aI464
aI9476
aI1441
aI3478
aI3817
aI21131
aI7644
aI13882
aI821
aI21235
aI13242
aI22087
aI8139
aI8736
aI4159
aI3802
aI15360
aI4069
aI6795
aI6671
aI19684
aI22089
aI14062
aI4040
aI9850
aI8513
aI12163
aI15550
aI4361
aI17768
aI20658
aI8013
aI8572
aI6696
aI19133
aI22953
aI11093
aI21348
aI11076
aI9980
aI23210
aI22371
aI24011
aI4598
aI16382
aI18892
aI23726
aI10664
aI7355
aI22434
aI11193
aI22098
aI7818
aI11668
aI8152
aI9511
aI3558
aI77
aI6688
aI23804
aI14569
aI7032
aI18749
aI12533
aI18216
aI20811
aI1208
aI21947
aI13168
aI19712
aI20056
aI7374
aI16769
aI14363
aI7330
aI3678
aI22415
aI12966
aI18929
aI3501
aI12266
aI22579
aI1008
aI12261
aI5987
aI3101
aI20156
aI10339
aI8045
aI13232
aI4175
aI21522
aI3266
aI10058
aI9064
aI17378
aI15509
aI3762
aI23981
aI18336
aI3499
aI15196
aI14664
aI1180
aI16135
aI14697
aI2472
aI17487
aI20941
aI9816
aI3646
aI1090
aI14066
aI22941
aI9558
aI2263
aI13929
aI1289
aI17224
aI18702
aI3262
aI8916
aI15972
aI13155
aI3217
aI8976
aI21599
aI5273
aI19786
aI15595
aI8782
aI366
aI20277
aI22396
aI22275
aI9504
aI14436
aI6940
aI15218
aI3475
aI13197
aI5506
aI4749
aI9435
aI915
aI5779
aI22450
aI12553
aI14482
aI7341
aI13402
aI21490
aI23785
aI13065
aI15204
aI10110
aI14242
aI5491
aI13797
aI2682
aI10194
aI10786
aI19361
aI19839
aI9537
aI12243
aI24044
aI12575
aI4325
aI21448
aI8925
aI6765
aI8783
aI19062
aI6162
aI17938
aI8990
aI6731
aI4451
aI23151
aI198
aI16515
aI6703
aI20619
aI14060
aI3343
aI12039
aI2268
aI9446
aI17785
aI8666
aI10799
aI23212
aI17404
aI14933
aI1041
aI22067
aI3778
aI12147
aI5611
aI18367
aI12283
aI82
aI5207
aI12205
aI10665
aI20688
aI8841
aI21068
aI5298
aI15623
aI22924
aI16452
aI162
aI9518
aI13629
aI13876
aI5763
aI5876
aI8443
aI2530
aI2785
aI20165
aI3980
aI21190
aI8267
aI8531
aI14876
aI184
aI10857
aI5810
aI11924
aI3679
aI13611
aI4429
aI5603
aI194
aI5324
aI24027
aI638
aI9524
aI17289
aI8792
aI19177
aI10715
aI382
aI5021
aI21557
aI4845
aI2875
aI3212
aI14377
aI23979
aI10173
aI18403
aI7394
aI22544
aI5303
aI13712
aI637
aI10363
aI10113
aI17330
aI2239
aI7564
aI23890
aI15718
aI22882
aI7390
aI8248
aI4946
aI11758
aI21081
aI3583
aI8253
aI22321
aI13078
aI7592
aI538
aI7547
aI4232
aI8495
aI5741
aI6418
aI8165
aI10891
aI23429
aI2483
aI14535
aI6857
aI12291
aI7746
aI13679
aI15569
aI2968
aI17102
aI15005
aI14721
aI7772
aI9668
aI18382
aI13018
aI15227
aI11468
aI12174
aI5799
aI19064
aI5077
aI10219
aI7901
aI17881
aI23085
aI22615
aI17268
aI22145
aI7998
aI15560
aI23706
aI17607
aI19314
aI20357
aI3797
aI13085
aI20586
aI15546
aI13043
aI22764
aI6976
aI11698
aI18068
aI1083
aI9852
aI16941
aI15627
aI9522
aI11275
aI18005
aI21095
aI21032
aI17524
aI7194
aI23112
aI22462
aI2583
aI8174
aI18563
aI11183
aI19558
aI15725
aI1243
aI851
aI19281
aI10493
aI13693
aI11762
aI19952
aI7500
aI23196
aI16490
aI17963
aI3473
aI20602
aI7720
aI21132
aI8157
aI20806
aI16391
aI13553
aI9081
aI22306
aI22932
aI15722
aI16429
aI9638
aI11487
aI12593
aI19917
aI19084
aI14412
aI9745
aI7186
aI18134
aI2094
aI13971
aI23878
aI17491
aI19521
aI3145
aI6633
aI7141
aI20326
aI12842
aI24053
aI17812
aI4303
aI8442
aI1540
aI21345
aI6843
aI667
aI19370
aI14959
aI5694
aI19026
aI22318
aI15706
aI15749
aI20650
aI10892
aI13005
aI8099
aI16050
aI22269
aI9815
aI4736
aI10075
aI21278
aI15608
aI16189
aI5863
aI618
aI5313
aI22984
aI22514
aI13620
aI16927
aI1154
aI8065
aI15226
aI4703
aI17255
aI8256
aI18732
aI17083
aI13744
aI18325
aI11610
aI13587
aI22340
aI807
aI23716
aI2680
aI14148
aI23762
aI24111
aI2139
aI12066
aI19784
aI21649
aI20961
aI22406
aI17886
aI15408
aI14769
aI18139
aI21853
aI5305
aI11951
aI13584
aI11819
aI12959
aI23546
aI158
aI2913
aI8617
aI5015
aI10257
aI17747
aI15644
aI18422
aI10426
aI20770
aI11989
aI13379
aI9502
aI3860
aI20404
aI12812
aI14983
aI21474
aI18574
aI23916
aI2117
aI8908
aI18444
aI9589
aI16656
aI16817
aI3848
aI10894
aI20482
aI21512
aI21756
aI5920
aI6909
aI24002
aI14101
aI6938
aI21117
aI5004
aI10824
aI1758
aI5347
aI4962
aI10415
aI2514
aI5903
aI22918
aI19016
aI11630
aI407
aI23029
aI8362
aI2279
aI4564
aI14475
aI9339
aI21309
aI5515
aI15968
aI12121
aI10648
aI10886
aI20936
aI21220
aI18715
aI21719
aI21979
aI448
aI2356
aI18627
aI13700
aI3258
aI17467
aI21062
aI23431
aI15477
aI18857
aI22850
aI11983
aI17328
aI5183
aI20210
aI19675
aI14157
aI11017
aI21125
aI18991
aI10950
aI11760
aI12426
aI15150
aI11810
aI17586
aI17958
aI9733
aI13150
aI22904
aI16286
aI23813
aI3314
aI8147
aI11865
aI23994
aI15711
aI8634
aI22748
aI15325
aI9760
aI23615
aI4973
aI15397
aI10588
aI6145
aI12761
aI13627
aI19733
aI16281
aI21435
aI24220
aI9195
aI21735
aI22667
aI18303
aI13713
aI1124
aI6676
aI22801
aI13380
aI22365
aI1660
aI21212
aI3160
aI5155
aI19916
aI9509
aI7549
aI10199
aI21867
aI24129
aI3170
aI13182
aI2858
aI8960
aI17966
aI11605
aI7774
aI1820
aI10925
aI4318
aI17155
aI2735
aI11806
aI7635
aI5125
aI21391
aI20427
aI9333
aI4892
aI17842
aI14801
aI1341
aI4463
aI22704
aI2002
aI19329
aI9683
aI12767
aI12156
aI21406
aI1348
aI22527
aI17542
aI24165
aI23171
aI19143
aI5025
aI16820
aI12811
aI12332
aI4987
aI9383
aI15689
aI114
aI8338
aI11531
aI23459
aI10668
aI18450
aI5647
aI3324
aI5748
aI10767
aI277
aI5786
aI11999
aI17281
aI21960
aI3551
aI14661
aI13615
aI1819
aI4766
aI16615
aI16975
aI13427
aI22363
aI2477
aI15880
aI16122
aI16409
aI21860
aI22512
aI3246
aI11879
aI21789
aI5744
aI3471
aI9505
aI12097
aI169
aI1344
aI14952
aI2087
aI3800
aI11519
aI12194
aI21253
aI17884
aI2333
aI10749
aI18799
aI12157
aI1593
aI23760
aI3907
aI2622
aI16937
aI5610
aI14831
aI7361
aI10168
aI12778
aI9074
aI21455
aI24161
aI12346
aI22657
aI21841
aI19431
aI7450
aI12714
aI15934
aI589
aI487
aI17101
aI17271
aI23432
aI8213
aI23219
aI1688
aI10165
aI15679
aI6722
aI3476
aI11742
aI6855
aI5841
aI21816
aI19091
aI15489
aI17445
aI10383
aI14889
aI4027
aI5919
aI1113
aI298
aI1342
aI22453
aI6760
aI14012
aI1938
aI16549
aI22351
aI7748
aI6152
aI18458
aI21647
aI19220
aI12175
aI21040
aI5300
aI19128
aI17928
aI7398
aI20442
aI19891
aI13066
aI1371
aI21578
aI5516
aI16280
aI11187
aI8939
aI8575
aI12776
aI21964
aI8210
aI16709
aI14283
aI11664
aI13348
aI2044
aI1672
aI21588
aI5038
aI9170
aI8538
aI7336
aI11078
aI9192
aI8387
aI20017
aI17761
aI24188
aI21745
aI12289
aI16745
aI9259
aI16879
aI12162
aI9006
aI14397
aI23784
aI22219
aI12673
aI5513
aI4309
aI13555
aI21849
aI7525
aI799
aI22628
aI3852
aI1490
aI20708
aI24119
aI21115
aI13422
aI5058
aI9231
aI22665
aI21349
aI2506
aI7491
aI1134
aI22146
aI16159
aI5235
aI23206
aI1110
aI14090
aI16860
aI4887
aI18202
aI20946
aI846
aI23091
aI8596
aI5680
aI3691
aI17888
aI23870
aI17788
aI14350
aI21064
aI9676
aI10259
aI9633
aI22265
aI16227
aI20295
aI3078
aI17866
aI4247
aI3738
aI19251
aI1432
aI9093
aI6491
aI12800
aI481
aI20208
aI24198
aI23542
aI3492
aI8838
aI7096
aI9981
aI4114
aI15589
aI10727
aI4793
aI23736
aI8259
aI18344
aI505
aI13709
aI13982
aI1049
aI2490
aI21765
aI15157
aI10480
aI1037
aI18379
aI13909
aI12810
aI22576
aI21063
aI18826
aI22111
aI9388
aI19115
aI10647
aI12377
aI23393
aI3025
aI20528
aI1973
aI22849
aI23953
aI14633
aI18862
aI18014
aI18192
aI20851
aI21371
aI16328
aI5655
aI21056
aI22517
aI15016
aI13936
aI2681
aI21479
aI18204
aI22842
aI20657
aI21208
aI9672
aI24083
aI13316
aI5274
aI18065
aI17887
aI22144
aI5957
aI11851
aI3044
aI16248
aI1427
aI14253
aI3208
aI20643
aI10845
aI11244
aI15113
aI13697
aI22
aI7820
aI20315
aI9972
aI9559
aI5123
aI21874
aI21024
aI19325
aI10724
aI8122
aI17401
aI3675
aI6548
aI8678
aI17718
aI7609
aI2710
aI6249
aI23222
aI19189
aI19437
aI5942
aI8012
aI11724
aI7510
aI13461
aI15659
aI20168
aI22206
aI14344
aI20824
aI4167
aI720
aI8319
aI13928
aI8511
aI12362
aI12780
aI5152
aI11591
aI14435
aI12497
aI22065
aI14190
aI20516
aI18322
aI16968
aI23624
aI547
aI13760
aI13738
aI1237
aI11016
aI23456
aI19763
aI2763
aI5201
aI2699
aI15740
aI8199
aI16360
aI10289
aI4208
aI8967
aI7061
aI1944
aI1485
aI12788
aI17620
aI6799
aI11261
aI7472
aI12587
aI8958
aI3903
aI14657
aI12948
aI15886
aI17642
aI13132
aI17539
aI3200
aI19834
aI7165
aI9674
aI18578
aI10118
aI12456
aI14329
aI666
aI9016
aI6434
aI15129
aI18928
aI13906
aI2795
aI24271
aI1242
aI16235
aI3252
aI7801
aI5975
aI10689
aI12455
aI6117
aI15680
aI15703
aI10052
aI5375
aI5419
aI19346
aI9862
aI14390
aI7469
aI20562
aI17899
aI21232
aI1447
aI21118
aI4345
aI5269
aI8737
aI1597
aI10914
aI8089
aI20231
aI2043
aI18210
aI2683
aI16472
aI19226
aI11580
aI10060
aI17555
aI2038
aI13344
aI22976
aI21957
aI20981
aI8487
aI15870
aI3297
aI19171
aI3727
aI20446
aI4036
aI20230
aI6694
aI20106
aI21171
aI13549
aI4213
aI6697
aI10216
aI19827
aI10133
aI383
aI18963
aI17989
aI11524
aI19244
aI3271
aI24204
aI5470
aI15199
aI16849
aI12308
aI22793
aI13970
aI24210
aI11123
aI18400
aI15047
aI23899
aI10740
aI3862
aI15779
aI4829
aI2455
aI4820
aI18604
aI8518
aI3960
aI5483
aI13347
aI3966
aI22231
aI6462
aI19199
aI10958
aI10565
aI8936
aI8834
aI19206
aI22166
aI3628
aI15103
aI5660
aI471
aI5689
aI12860
aI21306
aI17279
aI4754
aI10940
aI7235
aI21602
aI13004
aI21573
aI18712
aI19790
aI5178
aI15402
aI1569
aI1473
aI14639
aI2882
aI6097
aI8380
aI1642
aI20743
aI19304
aI16870
aI1368
aI21772
aI12597
aI14177
aI17691
aI19153
aI7317
aI598
aI4186
aI5724
aI4401
aI10332
aI6190
aI19419
aI9895
aI11714
aI17216
aI6409
aI17239
aI18323
aI5823
aI22933
aI22209
aI2753
aI19429
aI6338
aI13958
aI5840
aI19566
aI6170
aI20330
aI9437
aI12650
aI12155
aI2265
aI6284
aI4485
aI19682
aI2660
aI6529
aI16836
aI16637
aI9820
aI7650
aI7726
aI17759
aI4402
aI2210
aI8251
aI11313
aI10270
aI11087
aI19691
aI12403
aI23822
aI8015
aI1605
aI10877
aI24183
aI12685
aI21442
aI17551
aI22855
aI12771
aI21002
aI6099
aI20794
aI4378
aI4030
aI13326
aI1225
aI13655
aI6133
aI12470
aI7239
aI23351
aI7156
aI6657
aI6558
aI22889
aI6383
aI10573
aI4150
aI4723
aI10557
aI12017
aI16087
aI19674
aI2692
aI6723
aI16613
aI9658
aI18588
aI20121
aI5726
aI3548
aI12514
aI4151
aI10385
aI5262
aI15428
aI17952
aI14144
aI22445
aI3243
aI34
aI17930
aI3822
aI23009
aI5699
aI12429
aI12042
aI16964
aI1879
aI22385
aI449
aI18089
aI20089
aI12636
aI2874
aI918
aI10513
aI7851
aI7223
aI22076
aI4418
aI6854
aI19800
aI2300
aI3273
aI11394
aI14567
aI1649
aI11083
aI18207
aI12640
aI22090
aI2977
aI14040
aI4219
aI20223
aI4623
aI19999
aI15095
aI783
aI15493
aI13104
aI19856
aI15258
aI21978
aI16458
aI938
aI17339
aI4719
aI4764
aI9642
aI4943
aI22282
aI10204
aI3787
aI22786
aI16931
aI9224
aI8116
aI6335
aI9344
aI8771
aI5740
aI355
aI14467
aI17371
aI8285
aI24048
aI19693
aI3181
aI20356
aI13776
aI23438
aI616
aI7940
aI16327
aI22787
aI15008
aI20942
aI19755
aI15132
aI3655
aI9645
aI18742
aI15432
aI16686
aI14779
aI4434
aI8686
aI11302
aI6918
aI1653
aI20387
aI5855
aI9308
aI18000
aI3698
aI23514
aI21176
aI10481
aI22646
aI13308
aI20656
aI21826
aI14415
aI5688
aI20293
aI20879
aI22595
aI23952
aI11190
aI2419
aI18861
aI11786
aI12559
aI7691
aI21678
aI20349
aI20830
aI2344
aI2063
aI16406
aI20959
aI4553
aI10657
aI2596
aI2214
aI17179
aI17513
aI5390
aI19417
aI20333
aI19262
aI8843
aI9678
aI20198
aI22811
aI12078
aI5237
aI17043
aI18521
aI16044
aI15641
aI21767
aI12224
aI23062
aI20344
aI24095
aI9976
aI10599
aI20468
aI13513
aI9714
aI10889
aI21585
aI13938
aI16263
aI18245
aI15543
aI8222
aI22692
aI20217
aI235
aI21259
aI12849
aI16907
aI15345
aI10904
aI22325
aI16078
aI11731
aI2266
aI7849
aI5317
aI1930
aI10783
aI3074
aI20783
aI16995
aI15654
aI15691
aI20883
aI2127
aI8040
aI831
aI17105
aI7638
aI6609
aI20907
aI18488
aI7787
aI17385
aI23849
aI14359
aI18602
aI7484
aI4992
aI6827
aI664
aI15601
aI4362
aI23893
aI10547
aI812
aI16901
aI12739
aI12192
aI15915
aI22566
aI13372
aI9646
aI13311
aI628
aI17318
aI9143
aI15101
aI3529
aI993
aI13834
aI16187
aI11545
aI14077
aI1812
aI17434
aI19964
aI8435
aI20302
aI14067
aI16529
aI14016
aI6201
aI23413
aI3919
aI23766
aI10924
aI12112
aI22726
aI4290
aI9907
aI13122
aI20361
aI15790
aI23197
aI16578
aI457
aI7264
aI10540
aI3637
aI12418
aI8632
aI23946
aI1076
aI21304
aI7290
aI19079
aI23749
aI18455
aI21817
aI19385
aI11176
aI15784
aI5945
aI19362
aI4079
aI18141
aI14543
aI525
aI8533
aI6928
aI24261
aI5096
aI19871
aI4769
aI19038
aI20178
aI509
aI24284
aI10693
aI10333
aI23396
aI15713
aI23980
aI22570
aI13441
aI23792
aI18684
aI8257
aI4690
aI998
aI2828
aI3308
aI21944
aI13595
aI7192
aI18919
aI22797
aI22525
aI8149
aI60
aI20600
aI11410
aI13485
aI2170
aI12649
aI17373
aI23293
aI9527
aI1726
aI21241
aI6766
aI8433
aI2802
aI11561
aI2235
aI1376
aI23742
aI21388
aI8431
aI7931
aI7852
aI16565
aI4350
aI22653
aI825
aI14317
aI5950
aI16428
aI22774
aI14538
aI21047
aI12813
aI23830
aI6430
aI1646
aI2694
aI542
aI24112
aI24052
aI12125
aI23420
aI24213
aI21581
aI12319
aI3254
aI23370
aI12043
aI21096
aI12011
aI2150
aI15957
aI20844
aI3141
aI4435
aI20221
aI3945
aI23578
aI9321
aI13522
aI22987
aI23709
aI18423
aI11857
aI1104
aI5484
aI6808
aI18118
aI9829
aI19392
aI15392
aI6622
aI21299
aI12992
aI11593
aI20018
aI19610
aI17085
aI24032
aI17205
aI7519
aI3133
aI268
aI16247
aI8064
aI14847
aI493
aI11891
aI2292
aI3934
aI20355
aI12116
aI2053
aI24062
aI11969
aI23535
aI16979
aI22184
aI6471
aI5554
aI21916
aI2181
aI23247
aI11245
aI9792
aI9428
aI18546
aI4588
aI14449
aI6541
aI13500
aI15262
aI2647
aI13588
aI14053
aI10985
aI5941
aI4547
aI20290
aI1947
aI16365
aI7958
aI3351
aI4543
aI3572
aI1007
aI15645
aI757
aI20337
aI16377
aI199
aI7574
aI3188
aI21011
aI14767
aI14935
aI1468
aI20435
aI13889
aI9931
aI8170
aI15667
aI2765
aI18165
aI213
aI1876
aI10659
aI14626
aI6134
aI5994
aI20988
aI23148
aI20543
aI17728
aI3091
aI13562
aI8687
aI1558
aI10694
aI18631
aI8825
aI13014
aI11619
aI10640
aI2740
aI19883
aI1651
aI1365
aI16311
aI23426
aI48
aI4456
aI19967
aI5537
aI5478
aI3142
aI15289
aI22099
aI7934
aI16911
aI12427
aI15085
aI6899
aI12803
aI6569
aI12785
aI23595
aI9908
aI22455
aI8207
aI23790
aI16116
aI12400
aI17581
aI15283
aI3845
aI21864
aI18439
aI9605
aI7667
aI9776
aI11349
aI15155
aI12176
aI15228
aI24046
aI6109
aI1601
aI15573
aI13752
aI23344
aI1111
aI24293
aI11131
aI13097
aI6401
aI8521
aI18707
aI16245
aI18638
aI3639
aI2331
aI5278
aI15096
aI11984
aI11385
aI9229
aI9472
aI380
aI2427
aI7440
aI6619
aI18616
aI9903
aI968
aI7823
aI17187
aI9214
aI14911
aI9310
aI2924
aI19591
aI2888
aI3307
aI18432
aI7112
aI660
aI3464
aI2313
aI1877
aI18628
aI7578
aI22910
aI17138
aI4385
aI12899
aI2942
aI9301
aI1798
aI14970
aI15355
aI744
aI13129
aI14653
aI12036
aI19739
aI2086
aI9593
aI2338
aI10324
aI6759
aI12336
aI739
aI12623
aI11138
aI12599
aI4410
aI10535
aI23810
aI13423
aI22413
aI13412
aI12453
aI23944
aI3607
aI21143
aI7776
aI17057
aI15977
aI5822
aI21712
aI18947
aI19632
aI23358
aI23301
aI5443
aI19356
aI5633
aI16148
aI14450
aI14187
aI23861
aI9012
aI149
aI6999
aI18082
aI12574
aI16139
aI8275
aI24205
aI9793
aI20233
aI23018
aI4296
aI11953
aI7412
aI8105
aI8555
aI19438
aI8963
aI19185
aI1350
aI17569
aI19002
aI19698
aI13124
aI19088
aI7206
aI18493
aI22234
aI13067
aI11861
aI18952
aI5544
aI5949
aI13338
aI187
aI22930
aI15678
aI5622
aI15291
aI18989
aI22129
aI1901
aI15482
aI17178
aI12244
aI17566
aI24257
aI22378
aI19196
aI14165
aI23873
aI12545
aI22469
aI20930
aI2395
aI205
aI328
aI23544
aI11734
aI9123
aI4472
aI9886
aI6755
aI11972
aI23451
aI2199
aI10725
aI7989
aI7637
aI15890
aI7147
aI9900
aI1956
aI12806
aI22965
aI18045
aI10699
aI14349
aI10661
aI732
aI20052
aI7209
aI8383
aI11918
aI12015
aI4012
aI1400
aI14071
aI12781
aI20873
aI20300
aI5391
aI7658
aI15038
aI6353
aI13544
aI15635
aI8227
aI21550
aI24239
aI24160
aI3916
aI7997
aI6750
aI1950
aI14342
aI1885
aI17431
aI228
aI4643
aI8333
aI20336
aI11745
aI10242
aI12188
aI2847
aI12609
aI12934
aI6212
aI15859
aI7529
aI52
aI2557
aI8298
aI7531
aI5644
aI20062
aI12083
aI1101
aI1349
aI1305
aI18193
aI17849
aI7027
aI6929
aI609
aI1875
aI9875
aI11137
aI22399
aI4991
aI1287
aI18032
aI18470
aI4143
aI1991
aI4743
aI13064
aI22617
aI3518
aI11430
aI22124
aI10252
aI18031
aI18391
aI4539
aI1840
aI21315
aI10587
aI18614
aI11228
aI5593
aI13503
aI7761
aI13599
aI10695
aI4374
aI15476
aI23933
aI20104
aI15990
aI833
aI654
aI4396
aI14932
aI15923
aI21360
aI6989
aI3404
aI16784
aI8314
aI8994
aI18966
aI8143
aI15179
aI4735
aI18256
aI11306
aI11171
aI19173
aI3034
aI19208
aI15918
aI14824
aI17430
aI20483
aI14893
aI7470
aI20706
aI9455
aI7544
aI20984
aI18850
aI14023
aI19640
aI16781
aI4444
aI13056
aI22765
aI10962
aI12792
aI2936
aI12277
aI8767
aI3590
aI19112
aI2501
aI20283
aI18533
aI1880
aI10850
aI5397
aI23425
aI6943
aI18164
aI20843
aI13576
aI23599
aI8615
aI12529
aI22228
aI20729
aI11456
aI21077
aI19065
aI16316
aI20122
aI18783
aI21393
aI19074
aI9501
aI12267
aI19268
aI14235
aI19551
aI12631
aI8070
aI13315
aI23512
aI2121
aI10318
aI12200
aI3929
aI13694
aI570
aI21850
aI20896
aI14255
aI7566
aI14989
aI16325
aI1018
aI24172
aI10517
aI19850
aI12762
aI22426
aI18809
aI16473
aI12779
aI16899
aI13106
aI13115
aI10964
aI8741
aI19942
aI22508
aI1989
aI16503
aI7098
aI20499
aI15279
aI9274
aI23129
aI20498
aI11846
aI16476
aI17464
aI19547
aI3405
aI12139
aI19622
aI23285
aI16312
aI21833
aI14170
aI19071
aI17117
aI23988
aI334
aI19400
aI15605
aI16639
aI11396
aI10971
aI7055
aI5684
aI22443
aI12560
aI1804
aI11943
aI16431
aI11683
aI752
aI13491
aI21033
aI14929
aI2856
aI6177
aI15219
aI23123
aI10135
aI8549
aI12016
aI21778
aI18051
aI5326
aI17131
aI13072
aI7591
aI3378
aI12615
aI13201
aI16628
aI2001
aI17486
aI18258
aI13280
aI22656
aI6586
aI11290
aI19557
aI13287
aI4676
aI10335
aI13478
aI18111
aI12385
aI7095
aI7535
aI11839
aI17937
aI20544
aI362
aI759
aI19645
aI20623
aI5955
aI16726
aI19797
aI18835
aI7605
aI5973
aI23778
aI233
aI6519
aI7121
aI3235
aI15947
aI16217
aI19992
aI6282
aI14953
aI5263
aI1585
aI23307
aI18035
aI6268
aI23763
aI20622
aI15316
aI6411
aI17462
aI4880
aI17744
aI16028
aI20777
aI20095
aI5893
aI15418
aI19687
aI23309
aI9111
aI605
aI17685
aI3487
aI12252
aI23360
aI20127
aI17683
aI20218
aI20418
aI23340
aI10788
aI21556
aI7751
aI16583
aI7086
aI11903
aI19154
aI20954
aI1302
aI3009
aI14732
aI5197
aI6251
aI11269
aI9600
aI6195
aI7971
aI13774
aI22708
aI4432
aI8312
aI10408
aI19311
aI3850
aI12030
aI20275
aI15602
aI21329
aI1846
aI2685
aI19714
aI20996
aI13192
aI19697
aI3513
aI2280
aI7360
aI4740
aI15239
aI14254
aI5119
aI10957
aI3798
aI21828
aI7718
aI24041
aI23597
aI8696
aI12300
aI17601
aI21495
aI1754
aI14408
aI12002
aI8076
aI5793
aI13258
aI17608
aI13332
aI5519
aI6187
aI7719
aI22281
aI23178
aI12968
aI19771
aI7686
aI8477
aI8883
aI15752
aI4524
aI18647
aI5306
aI5210
aI16352
aI969
aI19479
aI17875
aI13535
aI13449
aI154
aI2586
aI21586
aI1156
aI8756
aI24253
aI21273
aI483
aI21866
aI21471
aI8235
aI14622
aI18364
aI4256
aI17343
aI860
aI13267
aI11379
aI3102
aI2473
aI17955
aI12921
aI23564
aI2072
aI23670
aI11986
aI10779
aI6670
aI19069
aI20059
aI22661
aI909
aI16147
aI6167
aI818
aI8713
aI10136
aI5250
aI21623
aI9068
aI12512
aI7271
aI7546
aI17355
aI15909
aI4235
aI21289
aI20428
aI6831
aI6655
aI12309
aI19860
aI1990
aI2484
aI9796
aI7173
aI15039
aI1405
aI10667
aI12895
aI5095
aI9470
aI13671
aI24238
aI4782
aI14921
aI17984
aI23290
aI14050
aI18486
aI22078
aI2014
aI14855
aI3107
aI14987
aI8315
aI14103
aI16919
aI15310
aI7641
aI21990
aI3952
aI9854
aI16612
aI24113
aI10598
aI20348
aI7365
aI14973
aI20321
aI6460
aI9648
aI18907
aI1338
aI8761
aI23938
aI5188
aI13470
aI8168
aI22394
aI23536
aI4437
aI12392
aI22744
aI23490
aI21879
aI15503
aI13159
aI18194
aI23756
aI9176
aI13829
aI23977
aI12958
aI17819
aI12700
aI17553
aI15829
aI15483
aI23074
aI961
aI19158
aI4430
aI18510
aI16319
aI20157
aI13334
aI22313
aI13512
aI5993
aI15685
aI7437
aI16897
aI314
aI19669
aI287
aI10979
aI15232
aI19348
aI20301
aI8
aI6279
aI10712
aI17108
aI10182
aI23866
aI19881
aI19486
aI14920
aI11870
aI5376
aI8231
aI6927
aI12922
aI3482
aI2958
aI7657
aI5363
aI22753
aI5328
aI11462
aI24063
aI1231
aI12268
aI15287
aI3825
aI21871
aI7843
aI23568
aI4874
aI13446
aI11828
aI427
aI7436
aI7722
aI17366
aI743
aI3339
aI7092
aI7366
aI24151
aI2487
aI19770
aI10134
aI15054
aI9105
aI12443
aI17185
aI20158
aI12018
aI16880
aI11781
aI23877
aI18973
aI18280
aI333
aI3105
aI17637
aI16649
aI19748
aI21695
aI12421
aI16559
aI178
aI2204
aI5434
aI23463
aI6252
aI2829
aI23000
aI21708
aI18918
aI18437
aI7897
aI7402
aI22171
aI10911
aI2037
aI7282
aI18899
aI5050
aI4768
aI18497
aI1731
aI9743
aI6331
aI6433
aI4371
aI108
aI8544
aI75
aI5026
aI7415
aI17119
aI966
aI22347
aI703
aI5990
aI8060
aI15158
aI844
aI15732
aI3682
aI9687
aI8171
aI23096
aI3289
aI19057
aI7071
aI15699
aI7274
aI14097
aI16455
aI15953
aI19144
aI6115
aI5751
aI20289
aI2623
aI5441
aI9877
aI19052
aI5925
aI9065
aI12875
aI11689
aI5808
aI4936
aI20735
aI15552
aI17852
aI9141
aI10843
aI3410
aI2100
aI3015
aI10643
aI14823
aI21025
aI11406
aI6453
aI1803
aI1713
aI5887
aI17099
aI1017
aI5426
aI8842
aI7234
aI2550
aI10054
aI4905
aI2515
aI19586
aI11693
aI1196
aI11319
aI5147
aI14009
aI15169
aI14017
aI19707
aI11893
aI16196
aI9751
aI10298
aI11682
aI4665
aI5905
aI12235
aI22633
aI14175
aI889
aI15202
aI6067
aI1599
aI20693
aI21137
aI15557
aI10185
aI8428
aI9680
aI14380
aI3866
aI8398
aI22655
aI9467
aI22183
aI4857
aI13283
aI7078
aI16178
aI1600
aI2130
aI22154
aI16865
aI4683
aI5634
aI6173
aI7963
aI8055
aI24250
aI7769
aI19296
aI21791
aI5636
aI16226
aI23157
aI81
aI10023
aI21283
aI1872
aI14990
aI12060
aI1107
aI3626
aI8894
aI6074
aI13034
aI7537
aI6481
aI3283
aI7825
aI20305
aI5186
aI3832
aI23462
aI20645
aI3828
aI1284
aI15042
aI19651
aI7526
aI17276
aI5674
aI17175
aI18018
aI7407
aI7817
aI13241
aI7735
aI23579
aI23967
aI16484
aI4311
aI8484
aI19956
aI2228
aI15851
aI2448
aI21321
aI9212
aI10393
aI4966
aI22669
aI735
aI93
aI7562
aI2207
aI12355
aI9644
aI10576
aI5833
aI9814
aI10280
aI21281
aI1522
aI3079
aI17295
aI14822
aI10127
aI18342
aI4976
aI19390
aI12798
aI19806
aI17557
aI14208
aI17538
aI19915
aI21290
aI14334
aI5666
aI22079
aI11020
aI22909
aI23174
aI3171
aI10310
aI16657
aI7356
aI1105
aI21707
aI1963
aI1345
aI11544
aI1374
aI6811
aI13292
aI6043
aI5966
aI20986
aI16205
aI11239
aI2413
aI4146
aI15021
aI15396
aI20086
aI4204
aI10013
aI18810
aI9479
aI10342
aI18958
aI9863
aI3703
aI8117
aI2290
aI6495
aI24180
aI16594
aI11572
aI1416
aI20312
aI12884
aI10696
aI8194
aI2521
aI14138
aI7863
aI21369
aI2846
aI23019
aI241
aI18494
aI11386
aI19592
aI7226
aI19873
aI2633
aI1157
aI20465
aI23530
aI9919
aI3366
aI1224
aI23121
aI14885
aI7978
aI1173
aI21468
aI331
aI11007
aI24298
aI12388
aI4699
aI875
aI20328
aI19497
aI18729
aI274
aI0
aI18230
aI23194
aI12419
aI12523
aI8577
aI963
aI23176
aI5415
aI9319
aI8389
aI19274
aI14641
aI15176
aI4933
aI13504
aI17245
aI17173
aI22085
aI4455
aI12996
aI20899
aI3383
aI1357
aI22239
aI22549
aI3118
aI11251
aI19238
aI7277
aI9613
aI13533
aI10687
aI11799
aI10218
aI10514
aI5816
aI18964
aI19581
aI19368
aI2106
aI14188
aI7725
aI3483
aI17448
aI22489
aI16785
aI9035
aI18078
aI9734
aI18466
aI13877
aI17536
aI22841
aI13039
aI16542
aI9569
aI14457
aI20662
aI11719
aI11704
aI20180
aI22262
aI21868
aI6280
aI9492
aI4664
aI23820
aI22202
aI15205
aI23399
aI16988
aI11769
aI20044
aI2257
aI23997
aI15637
aI22557
aI3781
aI13641
aI16250
aI17907
aI22963
aI10130
aI15646
aI10504
aI15527
aI9921
aI2126
aI16766
aI14115
aI13894
aI11958
aI22960
aI20952
aI886
aI17505
aI6596
aI12466
aI3428
aI10713
aI9884
aI11298
aI12160
aI24040
aI4225
aI4612
aI3138
aI3221
aI20590
aI859
aI17986
aI20612
aI22520
aI20993
aI4162
aI4816
aI24263
aI23225
aI3939
aI21622
aI22542
aI17129
aI3769
aI19318
aI698
aI15506
aI9267
aI8775
aI17882
aI23818
aI12072
aI22814
aI11892
aI7144
aI2033
aI1772
aI9282
aI3747
aI9703
aI12639
aI22709
aI4848
aI17118
aI19036
aI14203
aI20935
aI8747
aI16222
aI10188
aI21009
aI19105
aI24264
aI2376
aI792
aI571
aI21204
aI1390
aI2102
aI8211
aI17202
aI22612
aI540
aI14877
aI21844
aI15755
aI5852
aI4190
aI8343
aI8789
aI1270
aI11136
aI21129
aI18350
aI11263
aI2617
aI5009
aI21048
aI19744
aI9033
aI1661
aI17948
aI23900
aI21621
aI19435
aI21628
aI17037
aI8073
aI5140
aI567
aI4806
aI20083
aI15750
aI6498
aI19213
aI86
aI5586
aI15563
aI5002
aI12068
aI16305
aI11842
aI10709
aI15138
aI16117
aI14606
aI7914
aI16650
aI15050
aI6631
aI13336
aI4433
aI9290
aI19127
aI8479
aI7248
aI10422
aI1095
aI22788
aI1089
aI6632
aI9162
aI952
aI23318
aI21923
aI15317
aI8809
aI13699
aI11089
aI20931
aI17687
aI9165
aI12108
aI11773
aI17027
aI5481
aI2220
aI3029
aI20371
aI2466
aI21301
aI3746
aI5179
aI13859
aI10611
aI16702
aI21376
aI18764
aI1612
aI16579
aI8903
aI14122
aI940
aI23960
aI3016
aI6090
aI14590
aI18490
aI6878
aI20558
aI10051
aI8497
aI16734
aI17367
aI23170
aI7935
aI1245
aI11134
aI24135
aI22695
aI8272
aI21543
aI1785
aI6840
aI9002
aI21263
aI17904
aI24012
aI18296
aI9930
aI4613
aI155
aI14192
aI4753
aI12170
aI5113
aI1948
aI1869
aI3126
aI8931
aI3811
aI23486
aI16607
aI13495
aI5296
aI7760
aI10045
aI5118
aI15109
aI6754
aI9917
aI9256
aI17312
aI12590
aI5820
aI16882
aI11718
aI6277
aI23056
aI2722
aI6605
aI14896
aI10443
aI4864
aI2553
aI4633
aI18502
aI13602
aI11883
aI23353
aI11196
aI9625
aI4486
aI16591
aI4459
aI10411
aI284
aI9015
aI9155
aI23729
aI3749
aI23732
aI6476
aI24101
aI12666
aI11671
aI8456
aI21338
aI6851
aI559
aI24016
aI415
aI22839
aI6503
aI21470
aI1889
aI14763
aI2468
aI3564
aI4952
aI482
aI5798
aI7533
aI16088
aI4178
aI8993
aI22817
aI19590
aI3087
aI23918
aI7845
aI22357
aI15362
aI8897
aI15434
aI13134
aI16816
aI730
aI14156
aI2649
aI16701
aI3270
aI5447
aI15671
aI1063
aI21405
aI5175
aI4866
aI1174
aI15412
aI21046
aI3179
aI1334
aI7982
aI18701
aI10140
aI2393
aI19129
aI23003
aI6987
aI5865
aI10056
aI3633
aI22334
aI14655
aI11606
aI7328
aI22582
aI1448
aI18842
aI11037
aI9601
aI18946
aI17243
aI8283
aI3921
aI16493
aI19533
aI3528
aI18718
aI2850
aI3732
aI670
aI14862
aI2916
aI11622
aI12570
aI7280
aI4949
aI2869
aI12844
aI21672
aI1071
aI21638
aI6240
aI2664
aI11194
aI7475
aI19571
aI22289
aI7668
aI12124
aI2704
aI8178
aI501
aI21862
aI6229
aI6747
aI24171
aI17171
aI5081
aI22687
aI6260
aI11856
aI18430
aI6617
aI13742
aI16971
aI17160
aI21535
aI22885
aI16986
aI8563
aI14536
aI22546
aI22068
aI503
aI20367
aI21959
aI14884
aI16623
aI11574
aI1429
aI5777
aI22760
aI21385
aI4351
aI9138
aI23872
aI8492
aI14604
aI8670
aI14409
aI13790
aI21183
aI8557
aI12361
aI17021
aI4786
aI8320
aI12286
aI11063
aI12445
aI12874
aI18761
aI11720
aI4191
aI22131
aI7454
aI22829
aI3877
aI10180
aI14354
aI2992
aI7595
aI9508
aI1953
aI3032
aI5896
aI19398
aI3588
aI2351
aI11962
aI6590
aI14478
aI1250
aI22957
aI16180
aI23346
aI12499
aI16916
aI5849
aI4710
aI22379
aI9879
aI14480
aI5100
aI9697
aI14155
aI1899
aI8818
aI2796
aI7298
aI6175
aI17945
aI2122
aI21840
aI3976
aI725
aI17161
aI2375
aI16307
aI18297
aI21126
aI12721
aI13612
aI1909
aI18582
aI16940
aI13389
aI7555
aI3156
aI22427
aI21200
aI220
aI12557
aI2872
aI9181
aI19542
aI6297
aI22608
aI11496
aI51
aI12380
aI9818
aI19836
aI13419
aI1439
aI7313
aI8882
aI22114
aI3071
aI6142
aI19092
aI6250
aI3584
aI7551
aI11466
aI5884
aI17005
aI4914
aI15001
aI280
aI15783
aI1014
aI3981
aI21501
aI24295
aI3259
aI1799
aI1359
aI980
aI14812
aI24026
aI16402
aI12766
aI18603
aI12772
aI11843
aI10575
aI603
aI4189
aI13921
aI23335
aI10772
aI19835
aI11923
aI645
aI8434
aI16813
aI13421
aI9130
aI10292
aI6230
aI11460
aI8289
aI5132
aI8728
aI2394
aI10828
aI20490
aI15772
aI16155
aI22101
aI23812
aI17782
aI3319
aI2899
aI9500
aI20624
aI1813
aI12935
aI10090
aI5023
aI731
aI4815
aI20135
aI10122
aI8828
aI4595
aI22260
aI15027
aI19601
aI11947
aI13086
aI13650
aI3556
aI18932
aI16150
aI8155
aI10038
aI1575
aI3642
aI16423
aI3261
aI4029
aI8553
aI9133
aI14423
aI16326
aI2537
aI9813
aI14491
aI15571
aI16938
aI15366
aI20592
aI13950
aI7310
aI7342
aI20311
aI18923
aI8868
aI3250
aI23448
aI14986
aI24222
aI21604
aI21006
aI4644
aI20025
aI6224
aI2339
aI19637
aI19121
aI7409
aI7974
aI17435
aI4120
aI23282
aI6551
aI1268
aI5496
aI867
aI16823
aI15102
aI4095
aI15842
aI23303
aI21810
aI22297
aI7145
aI17512
aI13385
aI8999
aI17331
aI16471
aI5007
aI7882
aI10796
aI20566
aI3186
aI9393
aI7543
aI23444
aI682
aI3224
aI691
aI12404
aI715
aI18275
aI10919
aI5928
aI16400
aI20219
aI1831
aI19458
aI4696
aI22759
aI9381
aI17423
aI14413
aI1742
aI9948
aI15073
aI6706
aI2453
aI21548
aI22724
aI13349
aI20466
aI4295
aI4881
aI1362
aI9507
aI19491
aI6746
aI14802
aI22664
aI18286
aI16010
aI16984
aI2559
aI3328
aI6320
aI519
aI6199
aI17563
aI12229
aI12544
aI10465
aI23821
aI544
aI2133
aI13546
aI15178
aI6089
aI23263
aI18941
aI18552
aI16788
aI22134
aI3779
aI12045
aI10791
aI14402
aI12325
aI15452
aI6122
aI23699
aI3051
aI5727
aI24001
aI4530
aI750
aI16152
aI8058
aI12254
aI6463
aI12956
aI17028
aI18579
aI13801
aI9964
aI14013
aI11894
aI12978
aI20752
aI934
aI8742
aI18237
aI7617
aI4573
aI19671
aI2216
aI3305
aI7215
aI14703
aI1625
aI21838
aI4419
aI21279
aI7522
aI18106
aI12777
aI16647
aI22017
aI19459
aI15280
aI13205
aI12495
aI9273
aI15247
aI12804
aI7377
aI6393
aI19425
aI18448
aI13049
aI3598
aI19613
aI23273
aI11656
aI10609
aI1339
aI17168
aI18757
aI10531
aI11717
aI23158
aI21223
aI23889
aI24065
aI3973
aI6577
aI4448
aI14351
aI5107
aI9656
aI22320
aI22048
aI18700
aI5427
aI13207
aI8580
aI22457
aI9989
aI12023
aI16716
aI2551
aI11342
aI22743
aI19849
aI2307
aI13935
aI16680
aI6668
aI5187
aI16170
aI23492
aI11285
aI21469
aI12091
aI3287
aI21544
aI20513
aI6323
aI24010
aI20409
aI20995
aI6435
aI23407
aI23867
aI16419
aI23077
aI4883
aI12797
aI19334
aI6646
aI14976
aI7505
aI3911
aI10350
aI2781
aI5918
aI16832
aI17124
aI7339
aI18751
aI3480
aI7523
aI14554
aI19981
aI6636
aI9366
aI15585
aI6232
aI16761
aI684
aI14431
aI21566
aI581
aI7702
aI17648
aI4452
aI5886
aI17451
aI10721
aI18864
aI15314
aI17073
aI19777
aI16600
aI14001
aI377
aI7560
aI2503
aI10390
aI24251
aI1741
aI13526
aI10790
aI6227
aI2056
aI4484
aI14373
aI3847
aI181
aI6997
aI2811
aI10607
aI16558
aI4090
aI14800
aI49
aI3030
aI20812
aI13888
aI12535
aI8258
aI11477
aI2262
aI5182
aI2638
aI4945
aI749
aI2415
aI9399
aI15458
aI5528
aI5203
aI6049
aI2018
aI2986
aI19219
aI11646
aI1436
aI10184
aI107
aI13276
aI7808
aI15902
aI6562
aI13730
aI5220
aI5773
aI16292
aI20024
aI10476
aI13112
aI517
aI3130
aI15296
aI7700
aI1970
aI19556
aI23310
aI14056
aI9013
aI4939
aI1579
aI20045
aI14937
aI20023
aI14960
aI14578
aI1752
aI18792
aI22574
aI956
aI10831
aI8509
aI22481
aI7135
aI2019
aI9089
aI8550
aI10998
aI22623
aI18878
aI20710
aI13131
aI17344
aI9125
aI17317
aI8729
aI218
aI11101
aI16720
aI8805
aI12748
aI18353
aI13302
aI13625
aI13706
aI4037
aI8751
aI12035
aI9000
aI6218
aI21910
aI19778
aI1890
aI12610
aI14866
aI10306
aI3552
aI8982
aI9689
aI9560
aI12344
aI19538
aI21973
aI24278
aI5938
aI2042
aI14272
aI23324
aI7363
aI9077
aI22522
aI9240
aI24110
aI5488
aI12026
aI5514
aI3285
aI23226
aI1389
aI20323
aI21971
aI13074
aI6972
aI2650
aI4127
aI884
aI23471
aI891
aI11271
aI9926
aI20769
aI17122
aI10720
aI5085
aI11067
aI14670
aI6784
aI19792
aI539
aI18231
aI11476
aI23369
aI8212
aI24013
aI14565
aI11210
aI13529
aI16341
aI22332
aI17054
aI4312
aI4335
aI9912
aI920
aI23757
aI23161
aI18503
aI7268
aI18504
aI17092
aI22328
aI23853
aI6638
aI18713
aI2594
aI5737
aI17754
aI14114
aI2595
aI21661
aI18846
aI8310
aI1347
aI18536
aI10997
aI8648
aI13052
aI19159
aI6339
aI14992
aI6800
aI16597
aI6595
aI76
aI10250
aI17103
aI16157
aI13270
aI10808
aI20661
aI1694
aI21266
aI16485
aI4248
aI20206
aI17269
aI8044
aI1707
aI19780
aI12613
aI12661
aI21071
aI17550
aI6833
aI5831
aI17222
aI13054
aI10707
aI12592
aI16842
aI2357
aI18869
aI18571
aI22543
aI4446
aI6289
aI7238
aI12863
aI6702
aI9018
aI10509
aI3840
aI387
aI1668
aI5645
aI17308
aI14382
aI3234
aI23412
aI18179
aI23195
aI22701
aI20905
aI2756
aI4508
aI14428
aI8606
aI18590
aI10697
aI17781
aI9938
aI3115
aI20359
aI12491
aI5028
aI12488
aI16737
aI8969
aI15025
aI5890
aI16528
aI16277
aI20509
aI22270
aI10399
aI15225
aI2998
aI80
aI7538
aI21055
aI2877
aI14180
aI16693
aI15088
aI14264
aI14213
aI23281
aI22790
aI18099
aI9173
aI21715
aI13893
aI11231
aI14668
aI16435
aI24192
aI8933
aI20253
aI426
aI22238
aI17345
aI14628
aI21895
aI6911
aI15989
aI13632
aI6905
aI10623
aI13172
aI23104
aI8585
aI1072
aI20786
aI7261
aI3955
aI14111
aI413
aI5467
aI1904
aI2183
aI13575
aI904
aI21687
aI1715
aI11666
aI959
aI6885
aI12692
aI2970
aI23337
aI17588
aI16752
aI2373
aI315
aI722
aI1658
aI861
aI13328
aI9379
aI658
aI236
aI6926
aI14925
aI6715
aI2523
aI11270
aI4240
aI13531
aI18260
aI21134
aI14905
aI20284
aI20419
aI19968
aI17316
aI14975
aI135
aI4423
aI20891
aI1433
aI7515
aI6039
aI23909
aI2859
aI2848
aI17621
aI5271
aI14015
aI656
aI4608
aI5122
aI6875
aI8659
aI3694
aI3031
aI9597
aI17571
aI11888
aI11929
aI20383
aI16792
aI16976
aI18987
aI21202
aI12702
aI14304
aI22221
aI1184
aI1957
aI23982
aI7153
aI1753
aI12511
aI5455
aI13771
aI1361
aI9348
aI7080
aI7183
aI13572
aI6634
aI1954
aI22346
aI18457
aI21802
aI21322
aI7447
aI9257
aI3917
aI11528
aI22572
aI6996
aI1609
aI2963
aI18155
aI20029
aI8625
aI21111
aI2156
aI707
aI18704
aI13636
aI2895
aI11998
aI14683
aI11558
aI3500
aI19944
aI11536
aI12353
aI1825
aI15499
aI20504
aI16318
aI66
aI12437
aI5524
aI7536
aI4007
aI17394
aI6144
aI15879
aI9736
aI11156
aI5692
aI3563
aI2332
aI15881
aI12556
aI23640
aI6810
aI12878
aI5898
aI206
aI22088
aI3579
aI18789
aI2528
aI4353
aI22580
aI21019
aI10505
aI10345
aI19413
aI13607
aI23048
aI10020
aI6882
aI3058
aI10646
aI8400
aI21633
aI17856
aI5948
aI7392
aI20099
aI2479
aI15403
aI15415
aI1142
aI14166
aI20094
aI22176
aI13987
aI1853
aI4541
aI18019
aI11539
aI16778
aI8156
aI19828
aI15194
aI2619
aI5280
aI10654
aI16602
aI17614
aI2166
aI5781
aI8265
aI13174
aI5083
aI2671
aI1382
aI20070
aI3830
aI8797
aI15651
aI20617
aI4491
aI7503
aI13552
aI13839
aI11213
aI8234
aI11751
aI6853
aI12342
aI22826
aI2930
aI15899
aI11009
aI21334
aI7694
aI13831
aI5696
aI175
aI5456
aI22905
aI14383
aI20951
aI9595
aI20100
aI8328
aI19963
aI13735
aI18950
aI5639
aI19594
aI15838
aI2004
aI7327
aI629
aI16894
aI9857
aI17450
aI22403
aI23739
aI14046
aI9709
aI9548
aI15794
aI9842
aI20524
aI2275
aI4064
aI3237
aI17485
aI2141
aI22770
aI22138
aI19511
aI19658
aI7869
aI4193
aI22019
aI19307
aI17398
aI3643
aI23071
aI3114
aI14443
aI13144
aI3971
aI10046
aI22185
aI12330
aI10417
aI677
aI13048
aI9950
aI22874
aI4047
aI10154
aI3562
aI6072
aI22919
aI16736
aI8721
aI3165
aI7247
aI2643
aI1931
aI7216
aI5605
aI20334
aI8311
aI4627
aI2588
aI13514
aI18514
aI1288
aI16146
aI21506
aI13257
aI3511
aI12578
aI5265
aI23165
aI19532
aI8934
aI5577
aI386
aI89
aI1401
aI19969
aI11390
aI22081
aI9451
aI5719
aI6621
aI18740
aI16811
aI14479
aI16573
aI17814
aI7749
aI15013
aI6912
aI10311
aI4405
aI12979
aI10456
aI17110
aI5846
aI3571
aI1982
aI18337
aI5066
aI12528
aI9209
aI15522
aI7022
aI7821
aI22280
aI24058
aI14338
aI6079
aI13758
aI13780
aI10516
aI21342
aI12869
aI7534
aI342
aI8846
aI12262
aI10041
aI24070
aI4628
aI16531
aI11478
aI20249
aI18033
aI18921
aI21319
aI3977
aI8594
aI12752
aI866
aI24077
aI8191
aI11100
aI21392
aI10674
aI1691
aI7950
aI17390
aI14151
aI20411
aI4377
aI16136
aI18756
aI15488
aI4339
aI8788
aI14085
aI23231
aI15449
aI14818
aI19327
aI6005
aI24120
aI5049
aI21008
aI9563
aI16297
aI24031
aI5105
aI12109
aI478
aI13775
aI7929
aI23233
aI2678
aI18454
aI23525
aI9362
aI9495
aI19433
aI17382
aI7918
aI20108
aI23875
aI22136
aI20839
aI14202
aI17562
aI17347
aI6040
aI1261
aI3593
aI13108
aI17016
aI1771
aI18130
aI23258
aI22416
aI18239
aI9998
aI9252
aI10765
aI7054
aI3715
aI9102
aI3761
aI16284
aI13169
aI8393
aI802
aI4349
aI646
aI21205
aI8948
aI2777
aI10093
aI20400
aI13900
aI17815
aI10518
aI21092
aI7783
aI17220
aI8987
aI6868
aI12775
aI20771
aI23807
aI22373
aI15032
aI8592
aI9637
aI13887
aI17510
aI8914
aI4212
aI12843
aI1802
aI2101
aI14147
aI5517
aI3298
aI6669
aI20453
aI19001
aI10248
aI10608
aI20050
aI5971
aI977
aI2634
aI8765
aI6930
aI23477
aI14711
aI18538
aI23446
aI15062
aI15683
aI23814
aI11111
aI6394
aI11322
aI6203
aI1577
aI13062
aI9858
aI12218
aI1451
aI23394
aI18753
aI16553
aI17521
aI9429
aI1067
aI5261
aI22061
aI3638
aI15086
aI10613
aI14393
aI2574
aI17902
aI13080
aI6329
aI12000
aI9655
aI21872
aI15988
aI17564
aI1364
aI20197
aI22978
aI16207
aI7733
aI2077
aI17511
aI22539
aI19782
aI942
aI16462
aI16777
aI4389
aI15474
aI15464
aI11686
aI15015
aI16648
aI18368
aI10880
aI11046
aI5712
aI21861
aI11167
aI6772
aI7443
aI3278
aI13002
aI8579
aI12741
aI11264
aI21792
aI21485
aI17738
aI10523
aI2244
aI8971
aI17599
aI10256
aI2536
aI5733
aI21738
aI4458
aI20444
aI6858
aI20485
aI15857
aI7048
aI8738
aI24094
aI12059
aI4138
aI20763
aI15898
aI14492
aI2164
aI14582
aI6549
aI21450
aI19605
aI9287
aI13862
aI4058
aI3352
aI4103
aI6920
aI10759
aI23590
aI777
aI8543
aI13672
aI17029
aI16241
aI5979
aI22464
aI11058
aI4996
aI3279
aI7319
aI11798
aI10380
aI9307
aI2195
aI15106
aI19289
aI9717
aI7928
aI20828
aI2459
aI10220
aI10109
aI20495
aI3965
aI9891
aI5686
aI1283
aI17192
aI5229
aI20721
aI18010
aI2417
aI14530
aI20002
aI12228
aI16740
aI8780
aI10303
aI2465
aI21571
aI12297
aI7809
aI16786
aI23357
aI11665
aI22204
aI13886
aI5111
aI6793
aI9189
aI8629
aI23989
aI10537
aI15359
aI7014
aI3873
aI6959
aI10864
aI13592
aI3984
aI9318
aI8804
aI3880
aI17920
aI21
aI12698
aI12960
aI22828
aI502
aI4622
aI1505
aI13260
aI5535
aI13765
aI21854
aI6975
aI12548
aI12828
aI19403
aI12784
aI6376
aI19466
aI5947
aI8730
aI8785
aI7316
aI4611
aI13407
aI9159
aI2194
aI15753
aI16258
aI1444
aI23101
aI12337
aI11130
aI15224
aI21779
aI20207
aI1
aI14621
aI20026
aI9201
aI1815
aI9063
aI15337
aI13518
aI19072
aI22602
aI9806
aI15583
aI22922
aI6667
aI4532
aI7479
aI245
aI24130
aI18253
aI12301
aI16104
aI1325
aI16229
aI9363
aI6776
aI11033
aI16097
aI14465
aI4692
aI22942
aI21380
aI24225
aI19321
aI5471
aI20032
aI16711
aI13684
aI20414
aI1670
aI1677
aI11647
aI5926
aI9497
aI535
aI11910
aI20740
aI17301
aI5882
aI18925
aI4510
aI8701
aI19025
aI10822
aI3218
aI18650
aI6968
aI17585
aI15231
aI13583
aI2308
aI17704
aI9086
aI23693
aI20098
aI10755
aI18537
aI10862
aI454
aI19377
aI4720
aI11721
aI20611
aI23023
aI15473
aI24128
aI18814
aI21350
aI15131
aI14481
aI22578
aI1096
aI12085
aI22488
aI18933
aI21507
aI4801
aI17654
aI13502
aI20857
aI10946
aI9359
aI8455
aI13825
aI4787
aI11432
aI12399
aI21155
aI13000
aI13028
aI23957
aI4607
aI16009
aI7452
aI18335
aI7161
aI5356
aI19526
aI18697
aI13058
aI20188
aI20816
aI5695
aI17993
aI10008
aI7530
aI22299
aI16518
aI12950
aI8135
aI21483
aI8578
aI19808
aI13543
aI947
aI10568
aI5411
aI15590
aI19098
aI12249
aI12725
aI4565
aI19167
aI17285
aI17626
aI18599
aI23248
aI24064
aI8106
aI14586
aI23057
aI20982
aI20510
aI13710
aI22356
aI18471
aI20054
aI3466
aI4439
aI22681
aI24202
aI14279
aI3943
aI14689
aI22513
aI12687
aI14629
aI1002
aI6652
aI9498
aI8079
aI21465
aI7645
aI13508
aI15554
aI14533
aI24281
aI4289
aI24283
aI8255
aI20285
aI11859
aI11597
aI20690
aI21372
aI22441
aI3775
aI12159
aI2196
aI20882
aI3489
aI21637
aI14081
aI2198
aI1319
aI21728
aI3774
aI7418
aI13981
aI14086
aI18622
aI16259
aI15492
aI23494
aI7814
aI15315
aI20270
aI15813
aI18653
aI18172
aI11926
aI18854
aI4529
aI4522
aI7002
aI15022
aI11849
aI21333
aI21445
aI9340
aI17549
aI21300
aI23061
aI2317
aI5885
aI13051
aI21492
aI15530
aI8554
aI13499
aI13399
aI6045
aI20618
aI5226
aI5804
aI12092
aI18524
aI19805
aI19953
aI9590
aI10739
aI20213
aI15785
aI20998
aI11621
aI16952
aI17755
aI7711
aI9463
aI23698
aI573
aI10989
aI11149
aI1659
aI7567
aI5444
aI11872
aI11029
aI14898
aI15425
aI8857
aI8641
aI1346
aI18295
aI247
aI24144
aI7131
aI7756
aI3998
aI11331
aI13091
aI5333
aI4329
aI533
aI7920
aI11565
aI22731
aI2901
aI7227
aI18996
aI13843
aI10873
aI21742
aI8061
aI17725
aI11649
aI23636
aI18334
aI10002
aI13804
aI19485
aI10827
aI24142
aI6510
aI10602
aI9596
aI15771
aI13011
aI1561
aI5006
aI5578
aI4406
aI686
aI11304
aI9905
aI18980
aI19411
aI5663
aI7157
aI10525
aI8796
aI2227
aI24216
aI3573
aI5354
aI13918
aI16915
aI15282
aI13580
aI13835
aI7684
aI10169
aI13952
aI13013
aI22217
aI20273
aI10283
aI19258
aI3357
aI6974
aI11347
aI7040
aI3661
aI4804
aI20068
aI7049
aI10039
aI9071
aI21089
aI1074
aI279
aI4898
aI1031
aI11736
aI8290
aI16190
aI1073
aI5221
aI9615
aI24252
aI10542
aI5078
aI22461
aI15058
aI6728
aI3416
aI15201
aI8962
aI16727
aI19946
aI230
aI7063
aI943
aI8885
aI12750
aI16951
aI20109
aI3766
aI2720
aI6305
aI21339
aI24145
aI12394
aI18896
aI1837
aI6699
aI19410
aI8830
aI19776
aI16705
aI14607
aI12601
aI5641
aI18924
aI2247
aI927
aI20386
aI7791
aI7977
aI5571
aI15267
aI15358
aI18481
aI20631
aI17820
aI3611
aI14258
aI11917
aI9352
aI10746
aI15655
aI22190
aI4471
aI14566
aI2978
aI13676
aI147
aI15615
aI11739
aI3502
aI3418
aI4919
aI16685
aI1684
aI19261
aI15994
aI20880
aI17823
aI20263
aI20834
aI8840
aI14266
aI15754
aI13857
aI13890
aI14550
aI12588
aI8808
aI18044
aI6398
aI8269
aI6466
aI11026
aI2223
aI2621
aI4223
aI12940
aI787
aI20805
aI3576
aI23105
aI3322
aI4796
aI23598
aI2426
aI8699
aI9549
aI6952
aI22886
aI20443
aI6236
aI13364
aI17592
aI21806
aI9670
aI10459
aI591
aI19424
aI1978
aI23547
aI14519
aI13219
aI15221
aI15738
aI20881
aI2361
aI15809
aI2407
aI9730
aI14048
aI15622
aI21520
aI5853
aI6345
aI17576
aI15121
aI2486
aI16564
aI19575
aI5227
aI15653
aI16487
aI12236
aI256
aI9729
aI17664
aI8924
aI1681
aI2442
aI1992
aI11563
aI18796
aI20508
aI4205
aI23001
aI15865
aI2654
aI23006
aI2894
aI16634
aI8172
aI23277
aI10034
aI12786
aI23237
aI8836
aI24226
aI21834
aI23286
aI13664
aI13558
aI14570
aI19863
aI18433
aI20980
aI20675
aI7952
aI13757
aI18739
aI23368
aI6796
aI16983
aI12824
aI2702
aI21261
aI13705
aI11753
aI16234
aI19181
aI635
aI11560
aI13373
aI2460
aI22800
aI23110
aI12145
aI12617
aI18517
aI19568
aI11381
aI21135
aI23707
aI14943
aI15833
aI21793
aI10705
aI11277
aI8111
aI4715
aI17719
aI10867
aI20396
aI6958
aI15598
aI12829
aI22113
aI8669
aI22423
aI21412
aI16914
aI11514
aI10871
aI810
aI13158
aI10166
aI8704
aI773
aI2012
aI21069
aI9916
aI1452
aI7345
aI14316
aI6572
aI10805
aI622
aI10036
aI15078
aI883
aI12598
aI14434
aI19657
aI19303
aI7205
aI2467
aI10593
aI12074
aI1515
aI16638
aI18482
aI7202
aI19447
aI10941
aI14195
aI14787
aI22272
aI23521
aI5870
aI20679
aI4827
aI19333
aI11816
aI13847
aI2931
aI13096
aI12834
aI23339
aI6598
aI9819
aI24235
aI7458
aI3423
aI2635
aI20753
aI17134
aI23929
aI4534
aI5144
aI20374
aI16932
aI21310
aI23727
aI13560
aI11425
aI6673
aI8474
aI16169
aI613
aI1794
aI7221
aI6247
aI336
aI20745
aI7488
aI6914
aI4941
aI20307
aI6208
aI6935
aI7673
aI7936
aI19286
aI23591
aI17891
aI19000
aI14504
aI5075
aI3053
aI20877
aI19843
aI4849
aI7082
aI7011
aI1541
aI6315
aI16689
aI2865
aI20779
aI9769
aI99
aI293
aI22369
aI19297
aI21051
aI9647
aI8787
aI6449
aI2918
aI7924
aI5374
aI2807
aI17045
aI11726
aI7480
aI3284
aI15596
aI21691
aI6895
aI485
aI6231
aI5
aI2016
aI9160
aI5880
aI2719
aI13176
aI14764
aI2294
aI3809
aI18006
aI7035
aI21654
aI16699
aI6865
aI3820
aI1191
aI24249
aI24047
aI6662
aI18567
aI9106
aI19241
aI18158
aI18374
aI20754
aI1911
aI16411
aI8341
aI16304
aI18800
aI14335
aI3167
aI2590
aI17010
aI2327
aI6295
aI15090
aI5842
aI13031
aI15896
aI12140
aI20437
aI13081
aI3013
aI14869
aI19513
aI22745
aI1967
aI7497
aI4582
aI6809
aI12095
aI5398
aI15946
aI7334
aI16779
aI2073
aI9055
aI16100
aI8493
aI19033
aI21583
aI19667
aI14239
aI8485
aI4620
aI11316
aI21726
aI10722
aI5552
aI974
aI9482
aI1576
aI6963
aI12196
aI9284
aI17428
aI5193
aI12867
aI10370
aI1131
aI21920
aI13143
aI15478
aI4087
aI6327
aI223
aI9385
aI16539
aI13436
aI14643
aI3028
aI8735
aI10708
aI596
aI15044
aI11014
aI24025
aI9594
aI18735
aI13986
aI11279
aI24049
aI12329
aI21138
aI18830
aI15438
aI17296
aI10581
aI21240
aI20871
aI12634
aI7648
aI17307
aI16747
aI9232
aI13272
aI13879
aI16885
aI12999
aI19509
aI17828
aI18499
aI22147
aI15888
aI14154
aI9386
aI15519
aI9598
aI20866
aI7955
aI760
aI6395
aI7832
aI6069
aI3098
aI17623
aI2206
aI6248
aI22893
aI13448
aI12041
aI11722
aI4668
aI15939
aI20955
aI7467
aI7767
aI18414
aI16374
aI7243
aI8047
aI3180
aI23947
aI23879
aI2134
aI22011
aI19430
aI9477
aI14460
aI5713
aI17917
aI18039
aI5084
aI18313
aI8159
aI317
aI3810
aI367
aI6538
aI20990
aI9394
aI3193
aI8574
aI20670
aI3961
aI1629
aI7811
aI948
aI10392
aI6821
aI21079
aI11310
aI7678
aI13703
aI20972
aI11975
aI17489
aI15295
aI16751
aI5859
aI10528
aI3334
aI12595
aI16001
aI23478
aI16626
aI18975
aI11669
aI7833
aI16840
aI6001
aI16729
aI11230
aI3688
aI24127
aI15567
aI18676
aI11582
aI14512
aI9565
aI15710
aI10841
aI18263
aI8847
aI18801
aI1555
aI21579
aI16067
aI20635
aI898
aI16955
aI21800
aI3369
aI15117
aI874
aI15777
aI7587
aI23461
aI20370
aI21357
aI15908
aI10105
aI3524
aI18415
aI6243
aI19859
aI2953
aI15521
aI19517
aI19578
aI18279
aI1278
aI1158
aI2007
aI23524
aI12903
aI9777
aI8626
aI18558
aI4393
aI9174
aI12107
aI23540
aI16054
aI12305
aI6307
aI11763
aI641
aI2341
aI19998
aI22401
aI463
aI1119
aI9932
aI15274
aI4550
aI191
aI2168
aI5423
aI10999
aI19111
aI827
aI8339
aI13681
aI1763
aI8323
aI11106
aI7579
aI14006
aI1141
aI12168
aI10047
aI13844
aI2729
aI10781
aI1514
aI14339
aI22470
aI12260
aI23573
aI21271
aI19925
aI7453
aI4742
aI18969
aI3716
aI14687
aI7229
aI13353
aI21624
aI10462
aI5705
aI6024
aI14957
aI12093
aI15222
aI3591
aI14366
aI6691
aI1654
aI11979
aI12836
aI23066
aI7114
aI3080
aI7006
aI17095
aI15758
aI3776
aI9199
aI140
aI23135
aI179
aI18187
aI15092
aI1159
aI17627
aI3182
aI18957
aI13787
aI21044
aI14924
aI11452
aI12794
aI12854
aI19061
aI8167
aI9570
aI22197
aI4073
aI9765
aI18144
aI14306
aI14394
aI6649
aI15120
aI20112
aI24155
aI1836
aI9041
aI1921
aI2041
aI12486
aI3117
aI17804
aI17846
aI18576
aI8279
aI11549
aI19678
aI23611
aI22805
aI6502
aI6340
aI18046
aI9432
aI21666
aI7675
aI6444
aI16589
aI9985
aI5681
aI12373
aI878
aI23826
aI8755
aI18266
aI13506
aI13969
aI6269
aI11616
aI15182
aI11518
aI13582
aI19041
aI7378
aI1864
aI15853
aI21590
aI11450
aI20173
aI16385
aI23511
aI23213
aI8519
aI22865
aI2580
aI12516
aI849
aI19379
aI3606
aI21569
aI281
aI8760
aI16904
aI20517
aI10155
aI9732
aI20557
aI21158
aI12379
aI7403
aI1983
aI23299
aI16098
aI12118
aI9440
aI6157
aI10176
aI11157
aI18265
aI18224
aI18542
aI9158
aI16163
aI6991
aI1178
aI12234
aI11516
aI6756
aI21487
aI8921
aI20239
aI13686
aI15591
aI15952
aI21218
aI2385
aI14261
aI153
aI8378
aI20909
aI14054
aI11994
aI23926
aI15986
aI13057
aI6610
aI3479
aI10812
aI22819
aI13189
aI143
aI13452
aI12990
aI13923
aI11348
aI21904
aI8786
aI21886
aI19137
aI19652
aI22097
aI10200
aI11612
aI7917
aI14244
aI20222
aI12420
aI10473
aI5673
aI6563
aI3089
aI3430
aI8208
aI22135
aI17830
aI16345
aI17432
aI2021
aI22463
aI2113
aI13737
aI15268
aI13813
aI20807
aI3387
aI2927
aI15331
aI17053
aI22798
aI14462
aI19886
aI12317
aI1789
aI16039
aI15858
aI8130
aI13830
aI8609
aI9182
aI4811
aI19366
aI2960
aI10450
aI23650
aI21526
aI20373
aI12137
aI3580
aI8345
aI8368
aI3174
aI6100
aI2045
aI621
aI1144
aI12411
aI11233
aI4157
aI17874
aI13187
aI16839
aI14806
aI6342
aI8115
aI3920
aI20835
aI16218
aI18199
aI11207
aI4653
aI22742
aI8502
aI23474
aI16172
aI2938
aI20051
aI4687
aI3938
aI6720
aI4783
aI12299
aI4328
aI7179
aI9564
aI18234
aI8564
aI2743
aI22968
aI5340
aI5244
aI1914
aI5351
aI18354
aI9278
aI11429
aI12012
aI10063
aI9397
aI16694
aI6565
aI5627
aI17735
aI6941
aI21729
aI20536
aI21815
aI16658
aI7800
aI21900
aI21888
aI18724
aI15906
aI3295
aI15532
aI2902
aI4321
aI9213
aI3516
aI14712
aI15705
aI21611
aI16505
aI17403
aI22637
aI7276
aI22409
aI522
aI22994
aI13006
aI5728
aI4014
aI16576
aI16563
aI11789
aI4846
aI19822
aI8468
aI4509
aI9378
aI4497
aI19991
aI73
aI18802
aI15576
aI768
aI18523
aI23069
aI20796
aI1507
aI3613
aI15743
aI2871
aI3003
aI11072
aI4273
aI21737
aI16527
aI11353
aI16389
aI11002
aI15668
aI104
aI12454
aI16831
aI5160
aI18426
aI22696
aI22862
aI14873
aI12161
aI6009
aI9178
aI21948
aI23986
aI8185
aI440
aI20475
aI23111
aI16450
aI15139
aI7026
aI16510
aI8567
aI21177
aI204
aI14216
aI8856
aI6542
aI16748
aI20172
aI13398
aI21609
aI22475
aI16102
aI13157
aI11367
aI10356
aI20064
aI15374
aI9761
aI7462
aI20375
aI17471
aI9639
aI23322
aI23941
aI10835
aI12689
aI19027
aI23652
aI12713
aI20005
aI1145
aI13651
aI18002
aI14608
aI12371
aI8645
aI4243
aI1849
aI15905
aI13473
aI7134
aI23644
aI2401
aI4340
aI2587
aI9627
aI13335
aI22660
aI21700
aI21977
aI9692
aI23945
aI4341
aI17668
aI14761
aI2144
aI23227
aI8603
aI23323
aI22684
aI21717
aI2084
aI21059
aI2253
aI19676
aI22196
aI106
aI15775
aI23428
aI5690
aI10922
aI10095
aI8653
aI7516
aI9113
aI321
aI828
aI19989
aI5174
aI12985
aI21890
aI19769
aI10395
aI21175
aI7030
aI22772
aI12193
aI5420
aI23882
aI23924
aI21813
aI1249
aI20141
aI16804
aI7468
aI557
aI5551
aI7059
aI20329
aI3472
aI22156
aI10299
aI10439
aI9034
aI20910
aI1818
aI15072
aI12349
aI15854
aI19426
aI1388
aI22456
aI11703
aI17474
aI11414
aI9180
aI1980
aI16545
aI19857
aI8525
aI1801
aI6073
aI2320
aI7314
aI7159
aI7565
aI12210
aI16767
aI4854
aI20096
aI17256
aI23140
aI18619
aI18443
aI11932
aI23550
aI1205
aI7813
aI14940
aI326
aI22447
aI1303
aI19747
aI22407
aI8124
aI15040
aI3650
aI18629
aI14999
aI122
aI8534
aI3093
aI2824
aI19731
aI11380
aI18349
aI22349
aI11735
aI8035
aI10138
aI21254
aI22818
aI19096
aI1835
aI14285
aI9269
aI18920
aI4470
aI21018
aI20313
aI12848
aI10115
aI13392
aI15420
aI21798
aI20915
aI18754
aI17611
aI8901
aI14229
aI19984
aI14452
aI15817
aI14785
aI12532
aI20496
aI17305
aI22315
aI22816
aI12031
aI5159
aI2284
aI21087
aI8943
aI15930
aI6584
aI13095
aI6625
aI23780
aI15352
aI13591
aI711
aI9954
aI13897
aI5054
aI11534
aI20176
aI3376
aI9200
aI15278
aI22091
aI2071
aI15424
aI15029
aI22242
aI4818
aI15815
aI4357
aI21049
aI8480
aI20236
aI2062
aI16652
aI16027
aI13940
aI1683
aI16771
aI21814
aI23557
aI14182
aI2669
aI6413
aI10967
aI4557
aI23050
aI4414
aI23149
aI4841
aI7729
aI13231
aI12368
aI19580
aI23341
aI9418
aI21505
aI5199
aI14292
aI11484
aI22424
aI7133
aI2945
aI5598
aI6661
aI10797
aI5232
aI21930
aI2114
aI15063
aI21027
aI15998
aI18436
aI5590
aI4234
aI18424
aI22937
aI10374
aI14419
aI23852
aI11965
aI3424
aI1286
aI5801
aI11831
aI11676
aI11935
aI18498
aI17303
aI3213
aI1682
aI902
aI17240
aI10128
aI21128
aI5171
aI15364
aI1015
aI1994
aI6303
aI15275
aI16094
aI4268
aI20917
aI12951
aI2397
aI988
aI2047
aI15931
aI3786
aI19004
aI19260
aI7075
aI17414
aI16859
aI5986
aI981
aI835
aI2741
aI16046
aI8558
aI3360
aI2805
aI9568
aI15251
aI15369
aI16574
aI17453
aI23440
aI1044
aI16055
aI5170
aI17669
aI472
aI16467
aI9920
aI2581
aI9927
aI18658
aI1551
aI8820
aI17335
aI11229
aI20450
aI15471
aI1603
aI6027
aI20402
aI17087
aI16993
aI19256
aI2893
aI20224
aI20698
aI14214
aI17863
aI10262
aI9216
aI17186
aI4431
aI22610
aI17030
aI7485
aI4560
aI3425
aI16580
aI4566
aI24201
aI6399
aI4102
aI4440
aI10295
aI12070
aI24229
aI15099
aI23684
aI21277
aI6137
aI12926
aI14841
aI4195
aI15927
aI19087
aI3128
aI117
aI1959
aI3112
aI21144
aI9124
aI10650
aI6014
aI19574
aI4161
aI23422
aI18074
aI769
aI12606
aI13956
aI20322
aI22490
aI2124
aI19817
aI21671
aI22859
aI999
aI13038
aI885
aI7581
aI23581
aI6552
aI16724
aI8344
aI15666
aI1598
aI582
aI4214
aI20926
aI11179
aI16040
aI15948
aI2779
aI13017
aI21694
aI13892
aI9772
aI263
aI20532
aI20132
aI18706
aI17036
aI16855
aI15745
aI19342
aI13721
aI15308
aI11835
aI20561
aI17350
aI19085
aI12386
aI16803
aI2318
aI20398
aI12464
aI11595
aI21771
aI14693
aI23147
aI15744
aI21539
aI19647
aI5868
aI5910
aI20530
aI14552
aI12562
aI840
aI16593
aI17560
aI13933
aI7953
aI7926
aI11499
aI14517
aI5466
aI13598
aI12354
aI5711
aI21519
aI22233
aI14174
aI15575
aI1998
aI5911
aI16388
aI23084
aI10496
aI10875
aI697
aI16930
aI7288
aI10497
aI1112
aI9351
aI7875
aI19737
aI3941
aI21935
aI20084
aI11420
aI1666
aI2061
aI7992
aI595
aI16
aI10284
aI19313
aI2221
aI1581
aI5732
aI19852
aI20082
aI12604
aI3172
aI19317
aI15437
aI22241
aI5087
aI5184
aI8768
aI1203
aI15180
aI19496
aI3978
aI4772
aI13978
aI10347
aI17801
aI21656
aI23175
aI3816
aI1700
aI3326
aI21038
aI7623
aI14946
aI20644
aI6922
aI20945
aI15912
aI15735
aI853
aI18190
aI1464
aI12730
aI9529
aI3554
aI12001
aI14659
aI5331
aI9291
aI13674
aI791
aI13417
aI8321
aI2081
aI7900
aI22662
aI7050
aI8523
aI1863
aI11787
aI905
aI9395
aI16083
aI16754
aI16401
aI7943
aI767
aI16776
aI16809
aI15014
aI1275
aI21431
aI17746
aI9719
aI6913
aI11274
aI19338
aI7383
aI16733
aI9091
aI13268
aI14468
aI11457
aI14766
aI13250
aI8080
aI1130
aI5343
aI13523
aI5253
aI3153
aI15688
aI12891
aI9881
aI15820
aI6416
aI20358
aI13390
aI11847
aI11441
aI18122
aI14834
aI6762
aI20445
aI2437
aI16989
aI2990
aI16714
aI17730
aI21730
aI22271
aI2632
aI14287
aI14232
aI14124
aI17495
aI18225
aI10561
aI6181
aI8947
aI20850
aI1767
aI373
aI9809
aI3601
aI5935
aI5871
aI19530
aI22314
aI17191
aI12250
aI9599
aI3535
aI10753
aI10420
aI5589
aI5089
aI17280
aI7755
aI20382
aI7847
aI14470
aI22383
aI479
aI9037
aI6374
aI12830
aI21249
aI3962
aI3381
aI2575
aI23251
aI5293
aI20848
aI16659
aI15080
aI3740
aI19699
aI9941
aI5259
aI10884
aI6431
aI23950
aI5564
aI22626
aI17377
aI12662
aI3216
aI8986
aI5417
aI3047
aI6508
aI22034
aI1169
aI10816
aI5352
aI23679
aI7473
aI8158
aI408
aI88
aI6292
aI12295
aI21603
aI9223
aI17415
aI23895
aI20066
aI9740
aI22066
aI9986
aI6333
aI6721
aI17421
aI16042
aI4272
aI13266
aI11569
aI17413
aI10533
aI23794
aI14725
aI15682
aI10684
aI11200
aI6101
aI19462
aI6656
aI23975
aI19779
aI2219
aI19013
aI12143
aI12708
aI18767
aI2226
aI15518
aI21003
aI7685
aI3190
aI19554
aI3163
aI10733
aI8226
aI1964
aI3097
aI15187
aI17739
aI20067
aI23971
aI17706
aI21741
aI15188
aI21447
aI5418
aI11913
aI11069
aI5062
aI22352
aI5609
aI18277
aI20287
aI16566
aI5120
aI2566
aI1443
aI8140
aI11040
aI5970
aI9780
aI20076
aI10698
aI7384
aI7138
aI23651
aI19757
aI10329
aI7969
aI20634
aI5473
aI21073
aI10099
aI11744
aI4333
aI23304
aI23702
aI10520
aI7788
aI12563
aI6742
aI9078
aI9832
aI2234
aI15965
aI11113
aI12710
aI19529
aI2616
aI7868
aI5624
aI16679
aI15372
aI16643
aI545
aI22100
aI11963
aI21915
aI15281
aI8100
aI18738
aI2806
aI13745
aI23058
aI23264
aI8898
aI17865
aI979
aI19642
aI1545
aI14315
aI3426
aI8303
aI3280
aI9897
aI4128
aI23533
aI13795
aI14692
aI1316
aI506
aI452
aI21362
aI17086
aI10144
aI17079
aI1274
aI5930
aI925
aI3635
aI16052
aI7304
aI7237
aI7012
aI11712
aI10025
aI14204
aI3617
aI21365
aI4217
aI7703
aI8361
aI335
aI6200
aI6020
aI216
aI580
aI5101
aI15616
aI2687
aI3534
aI14632
aI22998
aI17165
aI14741
aI22594
aI7607
aI2054
aI302
aI22739
aI14076
aI390
aI19352
aI1503
aI21917
aI4813
aI7883
aI7781
aI9968
aI5115
aI13720
aI14296
aI5360
aI19764
aI11297
aI2201
aI12020
aI13589
aI15841
aI8465
aI9817
aI12164
aI12858
aI8375
aI3370
aI10403
aI4203
aI4851
aI1962
aI15690
aI1164
aI12952
aI3004
aI2153
aI13243
aI446
aI14597
aI8114
aI13251
aI13966
aI14421
aI5838
aI3723
aI8515
aI6733
aI949
aI1488
aI15778
aI5022
aI17733
aI888
aI14652
aI20423
aI15882
aI18428
aI7424
aI14510
aI18408
aI11966
aI19182
aI288
aI16195
aI17661
aI1870
aI22619
aI3757
aI24020
aI17766
aI11708
aI23008
aI2599
aI14257
aI5618
aI19387
aI20268
aI17388
aI8133
aI2433
aI23767
aI19518
aI22943
aI19148
aI21696
aI15444
aI19131
aI23134
aI12619
aI21713
aI8090
aI23145
aI2715
aI12549
aI6446
aI17395
aI12790
aI16755
aI22730
aI6526
aI2892
aI22537
aI13376
aI23126
aI22836
aI18782
aI14034
aI18300
aI702
aI23628
aI21582
aI14168
aI10186
aI16090
aI13175
aI9149
aI6735
aI23012
aI12064
aI11513
aI21173
aI10059
aI17120
aI19249
aI5747
aI21149
aI21949
aI12795
aI14274
aI19659
aI18655
aI9782
aI11368
aI10189
aI17361
aI9805
aI12939
aI23951
aI20143
aI18971
aI22777
aI4461
aI4661
aI11766
aI746
aI21568
aI13102
aI20695
aI2149
aI11212
aI6683
aI21857
aI17444
aI20186
aI14794
aI5429
aI19176
aI24248
aI20181
aI15997
aI18373
aI10742
aI23504
aI6539
aI19345
aI21718
aI5509
aI4803
aI20760
aI13264
aI5969
aI19561
aI13361
aI12345
aI20216
aI2652
aI21576
aI10961
aI4999
aI17140
aI19073
aI6957
aI22988
aI22903
aI23497
aI22926
aI4641
aI4674
aI6362
aI22714
aI14580
aI11895
aI12760
aI112
aI2512
aI23876
aI672
aI22863
aI2519
aI10434
aI530
aI992
aI7548
aI16346
aI19907
aI7044
aI15140
aI201
aI8223
aI12718
aI20071
aI20220
aI23923
aI136
aI21911
aI2026
aI23138
aI13358
aI23865
aI16373
aI5292
aI20060
aI10935
aI14850
aI10522
aI19237
aI10813
aI22109
aI5576
aI16127
aI18679
aI23829
aI8219
aI18827
aI11437
aI10235
aI2529
aI8902
aI13605
aI1685
aI3846
aI18983
aI2023
aI19132
aI5424
aI20304
aI3992
aI22414
aI12826
aI16228
aI9283
aI10920
aI20191
aI10762
aI8826
aI8201
aI18465
aI17841
aI70
aI17064
aI11732
aI6603
aI19138
aI6859
aI12169
aI6318
aI8221
aI18646
aI64
aI20970
aI16960
aI9837
aI9469
aI1300
aI13802
aI16154
aI6438
aI13967
aI6837
aI20730
aI7584
aI11638
aI4658
aI19948
aI10730
aI17290
aI1924
aI16080
aI10507
aI1343
aI2125
aI5076
aI19391
aI10683
aI6641
aI7108
aI19341
aI796
aI1497
aI3731
aI13573
aI18589
aI9571
aI3346
aI9519
aI5172
aI4500
aI16338
aI14291
aI2538
aI12839
aI132
aI9324
aI1805
aI23039
aI3876
aI1206
aI16570
aI121
aI10747
aI23572
aI3592
aI12209
aI6516
aI10534
aI1993
aI19974
aI12820
aI1955
aI7428
aI17273
aI1976
aI736
aI20818
aI20537
aI3092
aI11439
aI17059
aI7303
aI838
aI17980
aI19903
aI15136
aI16857
aI21847
aI4077
aI11502
aI12852
aI12618
aI18843
aI8059
aI19502
aI11383
aI16212
aI9248
aI195
aI14651
aI16153
aI5965
aI3342
aI23028
aI12438
aI16889
aI11869
aI6828
aI10821
aI9604
aI7065
aI857
aI15967
aI1310
aI5337
aI1564
aI20962
aI16424
aI9146
aI11660
aI370
aI9757
aI1215
aI6560
aI10234
aI5709
aI14241
aI349
aI20884
aI5764
aI18128
aI20822
aI16990
aI7506
aI13840
aI15235
aI10316
aI16120
aI6630
aI16074
aI16480
aI4117
aI19939
aI54
aI10923
aI14704
aI18678
aI23312
aI8861
aI9025
aI12988
aI267
aI16347
aI919
aI9070
aI21012
aI22003
aI11081
aI18186
aI3711
aI23665
aI6325
aI20971
aI6486
aI7281
aI18017
aI8907
aI21198
aI17949
aI636
aI17689
aI4133
aI1523
aI5527
aI14955
aI20097
aI16534
aI18731
aI3712
aI7784
aI23618
aI22411
aI14857
aI4301
aI5458
aI14293
aI665
aI8424
aI6704
aI13759
aI15045
aI3152
aI6545
aI1470
aI15066
aI21035
aI9190
aI2667
aI4700
aI17855
aI13547
aI16176
aI2608
aI15675
aI5498
aI4752
aI1477
aI22956
aI2009
aI962
aI21665
aI1783
aI3347
aI17634
aI21754
aI1054
aI3288
aI16744
aI23094
aI13818
aI7598
aI21463
aI6789
aI23453
aI13060
aI10334
aI3109
aI2374
aI1966
aI19080
aI17783
aI8732
aI11344
aI3409
aI661
aI4207
aI161
aI13998
aI11625
aI9764
aI16469
aI16034
aI17116
aI2597
aI14379
aI2994
aI8385
aI10276
aI18887
aI3733
aI2706
aI1862
aI5549
aI11189
aI10076
aI10017
aI17770
aI17674
aI19751
aI22117
aI15075
aI20758
aI3867
aI8510
aI6832
aI8425
aI7442
aI10656
aI555
aI1075
aI3120
aI20406
aI12620
aI2272
aI6047
aI602
aI1821
aI23888
aI8649
aI9454
aI7034
aI13665
aI8576
aI6969
aI9373
aI18081
aI17407
aI10440
aI12881
aI4499
aI8123
aI924
aI18076
aI23336
aI9702
aI17681
aI13647
aI16282
aI19614
aI22199
aI11293
aI13274
aI23441
aI16057
aI2733
aI19272
aI23115
aI19648
aI1796
aI9988
aI6147
aI15462
aI3663
aI23738
aI22784
aI11161
aI2314
aI18211
aI12889
aI21021
aI20950
aI23464
aI12008
aI1003
aI11215
aI4254
aI5996
aI2794
aI12014
aI20529
aI23806
aI8710
aI13160
aI5581
aI18522
aI4671
aI2783
aI15574
aI17780
aI10195
aI12506
aI23567
aI8695
aI1729
aI11845
aI8324
aI3006
aI6088
aI14176
aI12225
aI9584
aI14278
aI10391
aI5368
aI9882
aI20470
aI12280
aI3582
aI17509
aI13327
aI10865
aI16981
aI17400
aI5952
aI23109
aI255
aI11483
aI5650
aI648
aI24175
aI18021
aI21822
aI10909
aI22496
aI9254
aI6663
aI6452
aI4540
aI19765
aI6477
aI23985
aI10603
aI876
aI3069
aI19774
aI20648
aI18551
aI8200
aI5768
aI5231
aI18136
aI4255
aI12624
aI15837
aI21227
aI4629
aI13198
aI20552
aI19305
aI3082
aI17529
aI1211
aI21255
aI12328
aI12216
aI1321
aI3185
aI21307
aI7085
aI14294
aI15208
aI20983
aI5177
aI14523
aI7123
aI3277
aI4139
aI4192
aI21863
aI22645
aI21541
aI3631
aI3468
aI16996
aI16491
aI6698
aI3320
aI7279
aI3838
aI20183
aI12621
aI7985
aI13814
aI14537
aI12213
aI11550
aI10124
aI958
aI3673
aI17909
aI7831
aI6007
aI5679
aI18540
aI9969
aI22041
aI21250
aI18105
aI20297
aI4825
aI14265
aI20155
aI21493
aI17454
aI19545
aI18287
aI7714
aI7785
aI14307
aI6665
aI848
aI13069
aI12457
aI23415
aI15071
aI22587
aI19552
aI8884
aI19705
aI2020
aI5745
aI23775
aI19570
aI10083
aI18274
aI23454
aI11931
aI15373
aI5951
aI21648
aI1010
aI5079
aI5459
aI17038
aI18943
aI10499
aI3755
aI18656
aI14875
aI16575
aI16630
aI6469
aI11287
aI2349
aI14514
aI17020
aI21076
aI21736
aI12106
aI15077
aI520
aI15215
aI3581
aI22324
aI16808
aI14033
aI19531
aI1620
aI16557
aI9671
aI17635
aI14616
aI21704
aI8711
aI22288
aI12832
aI12366
aI18451
aI23653
aI23402
aI10231
aI21536
aI12893
aI20462
aI718
aI882
aI7766
aI4011
aI11119
aI11416
aI358
aI18547
aI10050
aI19940
aI15384
aI23715
aI5612
aI22200
aI17587
aI10294
aI9083
aI11162
aI3196
aI14838
aI24260
aI13236
aI23268
aI16216
aI1166
aI17900
aI19618
aI22064
aI2725
aI13363
aI22225
aI6822
aI23218
aI5051
aI18434
aI22483
aI17362
aI24080
aI13090
aI17112
aI10952
aI16425
aI20004
aI4048
aI23712
aI11990
aI10230
aI19943
aI16541
aI16243
aI14493
aI4630
aI15925
aI15800
aI296
aI24143
aI6777
aI16552
aI18917
aI9744
aI21523
aI14026
aI20890
aI5252
aI12274
aI17234
aI23797
aI10187
aI1352
aI12240
aI10554
aI6234
aI11062
aI207
aI15468
aI20555
aI13610
aI9824
aI18236
aI22545
aI1843
aI21395
aI23948
aI7514
aI6985
aI20471
aI2319
aI22985
aI17025
aI14887
aI16874
aI4322
aI18480
aI10802
aI5579
aI11509
aI15884
aI1696
aI12975
aI16482
aI4837
aI12322
aI4222
aI12389
aI24133
aI14677
aI21145
aI13628
aI23470
aI3768
aI1760
aI23750
aI4260
aI137
aI6644
aI10956
aI17906
aI18218
aI6751
aI17277
aI55
aI20041
aI17167
aI21919
aI18397
aI8731
aI5041
aI17811
aI16203
aI2676
aI5791
aI4390
aI6412
aI10848
aI10686
aI13460
aI5286
aI1907
aI17901
aI4533
aI5929
aI18132
aI3317
aI18592
aI29
aI4239
aI3834
aI4569
aI18891
aI3345
aI168
aI1332
aI1655
aI15214
aI3725
aI17148
aI16213
aI10287
aI12348
aI8329
aI23214
aI2568
aI22794
aI10164
aI655
aI3177
aI19879
aI15625
aI22246
aI17458
aI6000
aI9134
aI1945
aI5239
aI13618
aI16678
aI11376
aI5574
aI11490
aI12238
aI10597
aI6546
aI2531
aI15431
aI20424
aI2066
aI2563
aI22497
aI14303
aI3355
aI8784
aI7580
aI2495
aI9669
aI16827
aI12062
aI8790
aI14194
aI13433
aI608
aI5316
aI20638
aI18159
aI23259
aI7272
aI17044
aI8764
aI12876
aI18978
aI10945
aI2768
aI9799
aI4265
aI8644
aI3046
aI3293
aI5406
aI13667
aI11557
aI18977
aI23761
aI9572
aI10529
aI17640
aI1925
aI15450
aI9466
aI3668
aI16370
aI17009
aI12671
aI20159
aI5972
aI8342
aI23621
aI836
aI5780
aI4160
aI11315
aI12964
aI11971
aI3957
aI21515
aI15528
aI12783
aI2461
aI5649
aI4478
aI15270
aI9179
aI197
aI14357
aI2718
aI10559
aI6219
aI6132
aI6421
aI22343
aI17287
aI1791
aI28
aI14859
aI7569
aI3959
aI7984
aI23503
aI3403
aI16567
aI6937
aI643
aI14126
aI20696
aI5036
aI15108
aI24267
aI23086
aI3340
aI3640
aI13177
aI8397
aI12320
aI14404
aI6293
aI17997
aI16015
aI10281
aI4722
aI8906
aI18271
aI1623
aI7482
aI10468
aI19527
aI6690
aI6429
aI21682
aI8865
aI10662
aI21355
aI14252
aI852
aI7411
aI20533
aI20903
aI9419
aI9961
aI13959
aI15832
aI16342
aI21554
aI8376
aI2637
aI12906
aI6472
aI8839
aI20594
aI5249
aI1946
aI316
aI13
aI4016
aI21341
aI2712
aI19706
aI9984
aI16111
aI21953
aI13381
aI5749
aI21593
aI13566
aI6367
aI21914
aI2478
aI10202
aI24156
aI11863
aI14461
aI13451
aI22330
aI19070
aI5989
aI13782
aI15127
aI12628
aI7426
aI9528
aI21211
aI14907
aI18054
aI16802
aI2287
aI4663
aI13483
aI21724
aI6428
aI12136
aI13073
aI12585
aI10526
aI19895
aI2837
aI3656
aI21102
aI20720
aI9873
aI7552
aI5845
aI7106
aI22771
aI946
aI16833
aI11898
aI18062
aI15242
aI411
aI19353
aI7620
aI1817
aI23016
aI22043
aI21999
aI23421
aI21645
aI10088
aI15538
aI11588
aI23903
aI20647
aI24276
aI8441
aI17409
aI23793
aI16361
aI12422
aI5718
aI12304
aI23632
aI23645
aI22333
aI2363
aI5657
aI6642
aI18654
aI7677
aI22824
aI15495
aI16869
aI2926
aI6359
aI17223
aI6589
aI8811
aI4505
aI4877
aI22163
aI24211
aI340
aI18988
aI23081
aI11537
aI18961
aI2755
aI18566
aI1611
aI22856
aI6543
aI20605
aI11121
aI10859
aI9062
aI11936
aI16449
aI20429
aI259
aI16504
aI10209
aI14978
aI10953
aI21305
aI17821
aI16925
aI23744
aI7706
aI19126
aI5059
aI17364
aI22936
aI22853
aI22837
aI13456
aI417
aI21907
aI12073
aI4908
aI23515
aI12071
aI6739
aI9067
aI863
aI16446
aI7891
aI11815
aI21796
aI10900
aI319
aI2773
aI18570
aI11268
aI11887
aI6077
aI868
aI19890
aI11795
aI11576
aI9087
aI7208
aI12510
aI23298
aI21974
aI22907
aI21004
aI6866
aI17483
aI23648
aI10104
aI11308
aI16021
aI18688
aI8651
aI23846
aI3515
aI11004
aI6707
aI21324
aI16445
aI5607
aI16144
aI4621
aI16381
aI21325
aI8481
aI1829
aI17352
aI12219
aI10642
aI16691
aI18999
aI8548
aI20674
aI19798
aI7512
aI11125
aI21461
aI17218
aI13728
aI4944
aI1435
aI3506
aI2624
aI22181
aI8824
aI18534
aI7455
aI490
aI21601
aI8661
aI18643
aI18404
aI13040
aI18784
aI16629
aI14624
aI8995
aI6368
aI20520
aI13246
aI15780
aI9005
aI5620
aI21996
aI23972
aI704
aI8997
aI19867
aI1370
aI22341
aI16987
aI9008
aI23560
aI10455
aI15570
aI11307
aI15730
aI17088
aI6511
aI9663
aI17479
aI10120
aI21976
aI7184
aI8702
aI12307
aI22552
aI2641
aI14011
aI5323
aI5904
aI13769
aI2592
aI8833
aI11135
aI1034
aI933
aI4575
aI2075
aI23828
aI1430
aI11754
aI6363
aI19166
aI10849
aI20649
aI6906
aI1830
aI12920
aI16717
aI2462
aI8600
aI22402
aI15580
aI9198
aI1182
aI12378
aI20683
aI17941
aI23473
aI15024
aI19448
aI22175
aI15621
aI8271
aI11973
aI23619
aI22106
aI285
aI14370
aI12855
aI15540
aI23635
aI11841
aI11454
aI12275
aI15935
aI20626
aI23244
aI22392
aI9484
aI24277
aI5596
aI12885
aI8717
aI21444
aI17969
aI7146
aI1984
aI8153
aI14231
aI19585
aI19959
aI10309
aI2591
aI16797
aI18110
aI8024
aI9266
aI17206
aI20723
aI2288
aI21317
aI16233
aI14311
aI19386
aI18272
aI19848
aI22881
aI7137
aI2696
aI2607
aI9422
aI18833
aI12271
aI19728
aI9487
aI9517
aI13077
aI10288
aI16405
aI9276
aI17115
aI6396
aI19358
aI7597
aI13637
aI14962
aI20008
aI2177
aI11254
aI23184
aI23200
aI5784
aI10582
aI6228
aI10086
aI17228
aI20288
aI14118
aI18530
aI22167
aI200
aI16270
aI19702
aI18912
aI5027
aI19861
aI7039
aI14707
aI371
aI10978
aI436
aI10245
aI12522
aI405
aI22705
aI23354
aI1045
aI21284
aI23694
aI24037
aI3406
aI20415
aI5502
aI15395
aI15470
aI13724
aI18807
aI21408
aI2270
aI4542
aI15031
aI24104
aI819
aI17649
aI6513
aI22683
aI21934
aI12141
aI19134
aI19794
aI5501
aI13329
aI1734
aI22614
aI16076
aI14222
aI4496
aI18205
aI23901
aI10012
aI23966
aI16669
aI10368
aI10442
aI10213
aI23314
aI1538
aI9458
aI13375
aI18859
aI9911
aI22895
aI8664
aI11808
aI15991
aI17666
aI23117
aI4032
aI10402
aI10285
aI20791
aI1981
aI20514
aI12019
aI22506
aI18883
aI1591
aI7306
aI23342
aI6298
aI14747
aI7663
aI3197
aI24274
aI9060
aI12333
aI18052
aI18320
aI13866
aI1459
aI22970
aI10965
aI14391
aI22548
aI19484
aI3503
aI15723
aI5729
aI21375
aI19059
aI15861
aI13878
aI8249
aI16101
aI8627
aI3752
aI3372
aI10604
aI22540
aI14224
aI12432
aI6848
aI18306
aI11299
aI3375
aI21942
aI4520
aI871
aI16944
aI10937
aI3488
aI8674
aI7062
aI18719
aI16430
aI6174
aI14727
aI6053
aI8589
aI18308
aI24208
aI2017
aI22820
aI19986
aI1572
aI8268
aI17211
aI17520
aI9336
aI21567
aI22140
aI18492
aI7166
aI21374
aI1624
aI219
aI13365
aI23133
aI15850
aI16843
aI17813
aI17143
aI20632
aI2564
aI14690
aI6030
aI2152
aI13310
aI4481
aI20701
aI579
aI21093
aI23160
aI10688
aI4556
aI714
aI5255
aI10006
aI4756
aI10810
aI11540
aI11021
aI5683
aI19816
aI11091
aI11417
aI2727
aI11662
aI18312
aI9892
aI20131
aI8069
aI20327
aI8282
aI13432
aI15035
aI21876
aI15294
aI13540
aI19253
aI3268
aI11699
aI11258
aI19666
aI71
aI8373
aI6423
aI14328
aI6525
aI21956
aI3439
aI3232
aI10471
aI21213
aI18135
aI10784
aI4081
aI17795
aI13367
aI22621
aI5335
aI8025
aI10938
aI11853
aI20049
aI7616
aI1272
aI22207
aI17425
aI23380
aI3510
aI15984
aI15302
aI3756
aI16492
aI2707
aI1493
aI7175
aI16008
aI7372
aI20501
aI3741
aI18149
aI9971
aI24042
aI20956
aI9329
aI6986
aI19008
aI3155
aI10714
aI1537
aI1465
aI16516
aI4698
aI23489
aI23518
aI2190
aI9026
aI20174
aI2631
aI7213
aI20247
aI21022
aI21413
aI1916
aI15448
aI16536
aI16070
aI7954
aI4822
aI9300
aI15717
aI1529
aI23805
aI17007
aI10227
aI18935
aI18120
aI13922
aI10001
aI10682
aI10563
aI13984
aI15995
aI12104
aI23764
aI19442
aI16627
aI6946
aI18070
aI9211
aI2947
aI12276
aI14839
aI19394
aI16481
aI18867
aI23534
aI7083
aI19768
aI2527
aI5559
aI11404
aI12594
aI1223
aI23228
aI1714
aI9409
aI16162
aI13424
aI18968
aI58
aI5395
aI9425
aI17506
aI21394
aI4173
aI15380
aI3553
aI2241
aI23896
aI16371
aI5153
aI17107
aI13342
aI14100
aI1867
aI20705
aI10622
aI23691
aI4995
aI3719
aI15336
aI6443
aI22104
aI1181
aI21766
aI16794
aI1708
aI6884
aI1968
aI11284
aI1806
aI3758
aI932
aI15941
aI23377
aI23690
aI15479
aI5117
aI1701
aI10175
aI11164
aI912
aI3542
aI19236
aI4188
aI4436
aI20145
aI22846
aI6774
aI12251
aI23223
aI911
aI16470
aI5708
aI2390
aI5480
aI18365
aI20762
aI7987
aI7696
aI5665
aI4791
aI19654
aI9603
aI7878
aI10736
aI15551
aI3612
aI12656
aI12931
aI11177
aI1744
aI10944
aI22033
aI12723
aI11551
aI8892
aI22002
aI20243
aI13854
aI20580
aI22575
aI11867
aI8399
aI23092
aI4313
aI23563
aI11813
aI6936
aI14648
aI21070
aI20410
aI3540
aI16554
aI2921
aI12727
aI19077
aI17950
aI7764
aI9367
aI9550
aI3486
aI5270
aI7318
aI9860
aI12653
aI2089
aI13608
aI5234
aI6143
aI879
aI7254
aI17693
aI7181
aI3864
aI19460
aI9586
aI13848
aI3793
aI2408
aI13443
aI6350
aI1664
aI14575
aI18531
aI3603
aI13609
aI17229
aI20733
aI11086
aI7876
aI14494
aI14781
aI4238
aI18309
aI18914
aI23011
aI22899
aI11654
aI5529
aI19470
aI19160
aI13223
aI24138
aI424
aI4094
aI20075
aI20554
aI20535
aI20053
aI6380
aI13059
aI24100
aI3843
aI15903
aI9275
aI10239
aI6982
aI5829
aI6048
aI8624
aI7176
aI12408
aI18508
aI7031
aI1248
aI9207
aI10233
aI10768
aI15892
aI19047
aI19573
aI4963
aI625
aI23436
aI12343
aI8242
aI20039
aI16254
aI20486
aI16883
aI17653
aI10617
aI14819
aI10984
aI13593
aI24023
aI44
aI14119
aI14440
aI14540
aI16845
aI2039
aI17022
aI12084
aI1690
aI5402
aI13128
aI11985
aI4356
aI1680
aI2456
aI2961
aI19505
aI12711
aI11409
aI8357
aI6561
aI2838
aI22717
aI13994
aI6886
aI23776
aI2074
aI12930
aI5542
aI9933
aI19629
aI5158
aI9120
aI990
aI322
aI6660
aI9045
aI17663
aI21099
aI9202
aI12695
aI13711
aI19373
aI17066
aI13633
aI12056
aI1769
aI5897
aI1739
aI20823
aI9716
aI11802
aI10882
aI21480
aI9925
aI2145
aI2231
aI8009
aI9448
aI2833
aI21154
aI1234
aI8874
aI21153
aI1814
aI23815
aI19427
aI14947
aI345
aI20262
aI3750
aI4176
aI312
aI7029
aI4130
aI607
aI7337
aI20164
aI14603
aI10553
aI19813
aI2651
aI10530
aI18362
aI22384
aI16356
aI13563
aI15416
aI14724
aI14433
aI6925
aI18583
aI1628
aI13930
aI4997
aI18024
aI22867
aI11587
aI2923
aI12264
aI17019
aI20038
aI7724
aI1732
aI11945
aI8224
aI13979
aI1476
aI19795
aI12311
aI6448
aI3148
aI21819
aI8429
aI19783
aI22604
aI6314
aI14198
aI19355
aI22720
aI22005
aI4953
aI10112
aI11181
aI11959
aI24200
aI5651
aI20550
aI19560
aI13630
aI14791
aI22226
aI10910
aI578
aI226
aI10325
aI10511
aI13515
aI6159
aI7738
aI5299
aI23531
aI14701
aI11278
aI5991
aI6075
aI17158
aI15999
aI19441
aI19893
aI11154
aI22611
aI18358
aI4282
aI16985
aI12102
aI3187
aI11115
aI18419
aI1209
aI12835
aI5790
aI15230
aI19565
aI435
aI17644
aI17356
aI19295
aI15515
aI11059
aI14568
aI16303
aI24163
aI138
aI15446
aI10437
aI14271
aI22873
aI2186
aI11060
aI3070
aI180
aI13259
aI4902
aI12099
aI17578
aI10729
aI13740
aI11372
aI23787
aI12561
aI6139
aI20403
aI15240
aI6283
aI17416
aI3462
aI9963
aI21053
aI8968
aI24241
aI12278
aI17991
aI23558
aI20938
aI3365
aI1854
aI4107
aI11613
aI19598
aI6447
aI972
aI7043
aI20469
aI17827
aI23408
aI11148
aI15163
aI11906
aI14945
aI1517
aI2445
aI6916
aI2425
aI21457
aI15736
aI5869
aI21370
aI10275
aI681
aI15801
aI16873
aI22778
aI14928
aI9233
aI7944
aI816
aI1006
aI9525
aI24091
aI6581
aI21352
aI9685
aI6672
aI20627
aI10254
aI22452
aI4993
aI3794
aI15406
aI12323
aI22843
aI1377
aI22558
aI15130
aI11378
aI22059
aI19495
aI19726
aI4179
aI9341
aI20246
aI15707
aI937
aI19665
aI6757
aI19501
aI2027
aI22062
aI1554
aI3356
aI5475
aI2421
aI22746
aI8559
aI6522
aI22912
aI16511
aI16118
aI10210
aI6579
aI18188
aI18384
aI8177
aI11399
aI22290
aI14879
aI6264
aI19288
aI23458
aI8173
aI7646
aI22194
aI9468
aI19242
aI21094
aI16315
aI13088
aI16133
aI3910
aI21074
aI19097
aI15480
aI18321
aI14585
aI12504
aI9499
aI8411
aI10982
aI3987
aI11933
aI8949
aI19372
aI17264
aI561
aI11217
aI20401
aI22964
aI11074
aI17426
aI3257
aI20549
aI2928
aI11628
aI9137
aI17554
aI1788
aI6881
aI18073
aI22783
aI12815
aI8366
aI24244
aI7073
aI14927
aI6286
aI4833
aI10691
aI6945
aI11672
aI5180
aI22921
aI17091
aI18477
aI869
aI7203
aI15307
aI23755
aI17797
aI13306
aI4635
aI21034
aI10918
aI20467
aI2860
aI5204
aI10322
aI9249
aI15328
aI7736
aI7798
aI9849
aI13007
aI3684
aI8391
aI17405
aI23005
aI1676
aI5864
aI21222
aI2956
aI21242
aI18131
aI9066
aI19713
aI7263
aI10649
aI1176
aI7613
aI7708
aI13891
aI9166
aI9039
aI431
aI2119
aI9698
aI7907
aI13614
aI17130
aI14562
aI13162
aI4795
aI9622
aI9721
aI5112
aI24030
aI2620
aI23437
aI5304
aI4655
aI8396
aI14149
aI3764
aI20199
aI8909
aI9739
aI5988
aI22254
aI16204
aI5243
aI19255
aI3737
aI14728
aI13480
aI19227
aI16351
aI10070
aI6244
aI21462
aI20142
aI13826
aI18317
aI24090
aI23934
aI4617
aI19302
aI5486
aI18708
aI23046
aI21109
aI23860
aI19157
aI10652
aI15769
aI6012
aI13305
aI14288
aI2679
aI22530
aI23902
aI2230
aI7047
aI12707
aI10237
aI13206
aI797
aI8280
aI1936
aI13415
aI24285
aI4552
aI17696
aI23103
aI16330
aI14364
aI7625
aI19235
aI6319
aI10717
aI5912
aI23643
aI11793
aI18621
aI8198
aI10224
aI811
aI17688
aI19802
aI9426
aI2693
aI20603
aI15620
aI21785
aI14731
aI14031
aI6528
aI13701
aI7679
aI17873
aI10297
aI7170
aI1360
aI18939
aI8749
aI14881
aI14600
aI11921
aI18153
aI11694
aI6942
aI13331
aI11114
aI6437
aI16847
aI16489
aI15781
aI3121
aI1188
aI13185
aI16582
aI21103
aI20958
aI14327
aI20282
aI20381
aI2274
aI13870
aI21565
aI17298
aI7478
aI1861
aI10205
aI20911
aI20368
aI6547
aI19200
aI18956
aI13794
aI2159
aI7908
aI19344
aI7188
aI21975
aI10878
aI7259
aI3199
aI15537
aI18897
aI23348
aI13489
aI16757
aI24007
aI5311
aI22236
aI7727
aI18915
aI3610
aI6255
aI4080
aI2112
aI22436
aI5736
aI23710
aI19123
aI4649
aI8136
aI20673
aI20140
aI6262
aI299
aI22465
aI17084
aI4882
aI20792
aI3680
aI15198
aI11785
aI14107
aI9746
aI23168
aI20559
aI808
aI22892
aI17638
aI15747
aI16514
aI1556
aI6980
aI3652
aI5342
aI4326
aI6106
aI11733
aI17690
aI20521
aI13009
aI10804
aI843
aI4292
aI11877
aI4197
aI9923
aI7674
aI18080
aI19416
aI22495
aI15454
aI24212
aI23032
aI18559
aI1129
aI14152
aI2698
aI18880
aI4344
aI14744
aI3857
aI15125
aI16219
aI7887
aI11538
aI16660
aI19520
aI6071
aI2946
aI8450
aI1078
aI21689
aI8216
aI3290
aI23118
aI14789
aI7201
aI1927
aI2695
aI14019
aI17383
aI16977
aI23510
aI7236
aI13980
aI17114
aI19865
aI22170
aI18532
aI7036
aI6118
aI17749
aI78
aI21174
aI11548
aI10183
aI10631
aI14913
aI18791
aI13032
aI3111
aI14005
aI22813
aI15944
aI9241
aI23527
aI17248
aI12476
aI15636
aI21787
aI2215
aI21967
aI9937
aI21542
aI16963
aI5046
aI4836
aI4606
aI21286
aI5839
aI16675
aI6534
aI22440
aI11523
aI21097
aI15529
aI6653
aI6599
aI10663
aI19068
aI17659
aI3000
aI11296
aI11728
aI7770
aI17233
aI11908
aI1143
aI18146
aI11615
aI18050
aI20681
aI18092
aI17999
aI10492
aI12716
aI17518
aI9871
aI20261
aI1675
aI7266
aI22528
aI22255
aI19049
aI2278
aI4438
aI5438
aI19243
aI11788
aI12054
aI21877
aI18819
aI17199
aI18913
aI4916
aI20228
aI3442
aI23203
aI2562
aI12643
aI6782
aI2236
aI18596
aI15379
aI2295
aI20724
aI21294
aI20560
aI18380
aI3036
aI5284
aI19914
aI23495
aI7554
aI21157
aI23786
aI10566
aI9294
aI10074
aI7964
aI2819
aI20456
aI13507
aI22132
aI18945
aI7904
aI914
aI8621
aI18544
aI9510
aI21224
aI8469
aI24106
aI1199
aI19664
aI4323
aI8937
aI17629
aI19050
aI12190
aI2179
aI16007
aI16106
aI17859
aI11827
aI11401
aI22031
aI17771
aI5416
aI8041
aI7660
aI20116
aI17261
aI10585
aI8859
aI18825
aI6616
aI8978
aI15751
aI10366
aI17204
aI17985
aI19847
aI11288
aI892
aI5584
aI2392
aI9939
aI3374
aI12962
aI2388
aI5139
aI17221
aI1494
aI16354
aI6326
aI3389
aI19451
aI5477
aI18077
aI11340
aI24294
aI8374
aI13426
aI12732
aI6737
aI5743
aI17742
aI1630
aI22083
aI23851
aI7683
aI2889
aI19294
aI14325
aI23215
aI12138
aI23442
aI445
aI13708
aI18611
aI16550
aI20684
aI18064
aI8302
aI21951
aI20919
aI2636
aI5992
aI7861
aI4910
aI12658
aI16404
aI2085
aI16746
aI9778
aI22382
aI10193
aI20757
aI14522
aI12433
aI6608
aI12077
aI11246
aI5836
aI16348
aI2337
aI20149
aI17686
aI10527
aI19830
aI5811
aI324
aI6426
aI13119
aI3726
aI10536
aI14501
aI22897
aI5061
aI11905
aI16872
aI5560
aI6597
aI8877
aI22057
aI17399
aI460
aI23854
aI3937
aI12489
aI10161
aI19233
aI20192
aI16197
aI13731
aI4373
aI6791
aI18505
aI11252
aI4258
aI8454
aI7129
aI1100
aI20425
aI8512
aI11068
aI16349
aI5874
aI21986
aI20195
aI5345
aI20840
aI13661
aI20235
aI10382
aI9208
aI23914
aI3204
aI11967
aI7583
aI4689
aI23517
aI14075
aI13660
aI23498
aI1937
aI12006
aI12901
aI20885
aI17249
aI264
aI13926
aI2400
aI3888
aI4224
aI6063
aI18820
aI13186
aI19053
aI2469
aI8101
aI11940
aI19826
aI11242
aI24262
aI13400
aI7109
aI15872
aI1504
aI13541
aI5357
aI13026
aI15320
aI19452
aI412
aI17716
aI303
aI17360
aI4057
aI4561
aI18166
aI20906
aI23079
aI10879
aI393
aI13850
aI23078
aI16906
aI22405
aI2444
aI16048
aI14068
aI4863
aI12022
aI20055
aI5553
aI20579
aI19319
aI23608
aI11174
aI13396
aI11915
aI16500
aI7416
aI5691
aI11362
aI16969
aI23468
aI9402
aI5176
aI3236
aI19955
aI8081
aI6459
aI17905
aI19103
aI16177
aI14106
aI21706
aI17871
aI22444
aI23379
aI7816
aI23460
aI9974
aI9114
aI24076
aI4140
aI16128
aI22103
aI12206
aI17918
aI17763
aI8470
aI13047
aI12288
aI145
aI5962
aI14561
aI1486
aI5995
aI8482
aI4870
aI16718
aI14503
aI14778
aI22283
aI4337
aI2540
aI4915
aI12423
aI16420
aI7370
aI5787
aI13853
aI11644
aI4572
aI18901
aI12821
aI20408
aI16257
aI19408
aI12005
aI12531
aI17473
aI1417
aI1114
aI21865
aI18828
aI16668
aI9711
aI3438
aI193
aI15349
aI12850
aI8278
aI8886
aI2737
aI15976
aI7187
aI10752
aI23060
aI9194
aI7270
aI1392
aI11868
aI1995
aI1587
aI6161
aI4814
aI13668
aI5565
aI17732
aI5256
aI1233
aI14490
aI4906
aI2558
aI4947
aI15577
aI1765
aI12406
aI8029
aI1055
aI8086
aI12364
aI22203
aI1093
aI5365
aI23859
aI2310
aI10077
aI19608
aI15233
aI16461
aI13860
aI14807
aI9317
aI8591
aI6788
aI4981
aI23216
aI6356
aI13107
aI16451
aI3412
aI6029
aI15020
aI1065
aI9591
aI9924
aI17065
aI9585
aI19396
aI11222
aI11829
aI12226
aI12201
aI11116
aI7933
aI1526
aI5093
aI1910
aI13861
aI6206
aI5717
aI1779
aI20436
aI3784
aI1293
aI2447
aI22335
aI14630
aI2989
aI23883
aI16525
aI15244
aI1217
aI9762
aI14240
aI12880
aI13360
aI19516
aI23378
aI6645
aI240
aI5678
aI1354
aI3734
aI128
aI15816
aI11542
aI14640
aI2516
aI22776
aI11459
aI21017
aI6839
aI12756
aI8700
aI22492
aI14417
aI8957
aI21335
aI495
aI7421
aI23433
aI15962
aI4724
aI10737
aI7895
aI4199
aI2326
aI2980
aI8932
aI11300
aI7329
aI6467
aI19700
aI23566
aI1020
aI8690
aI2672
aI6592
aI14499
aI1186
aI352
aI6679
aI14448
aI7723
aI18040
aI7309
aI7158
aI1252
aI4388
aI8726
aI19823
aI9952
aI513
aI10897
aI21653
aI7826
aI14474
aI18267
aI18797
aI16145
aI14268
aI8460
aI4200
aI4642
aI6826
aI14717
aI16787
aI13496
aI657
aI24072
aI4647
aI10068
aI23661
aI5208
aI21243
aI20481
aI16526
aI5251
aI18974
aI3437
aI1309
aI4805
aI12471
aI14348
aI19279
aI3220
aI19308
aI11305
aI4932
aI18341
aI8800
aI12509
aI7240
aI7973
aI14142
aI14865
aI20391
aI4286
aI4267
aI2843
aI17896
aI4372
aI17203
aI23943
aI8421
aI24218
aI13297
aI23725
aI16038
aI13649
aI5060
aI20074
aI6816
aI16114
aI1019
aI12258
aI8281
aI1500
aI1648
aI10681
aI11876
aI18581
aI6004
aI12182
aI1292
aI3933
aI16299
aI3999
aI406
aI22597
aI242
aI8067
aI22220
aI17412
aI4031
aI1678
aI2334
aI20460
aI14617
aI4755
aI713
aI21420
aI1878
aI23098
aI5448
aI4227
aI18615
aI9532
aI21575
aI17214
aI20027
aI6507
aI12257
aI8184
aI20422
aI775
aI12625
aI16844
aI6093
aI20810
aI17639
aI7410
aI5185
aI12111
aI15049
aI14228
aI22629
aI21347
aI8193
aI5164
aI11481
aI21629
aI3771
aI19819
aI8187
aI4940
aI12898
aI10407
aI6785
aI17707
aI4023
aI16947
aI4646
aI174
aI11110
aI309
aI9489
aI6768
aI1773
aI4375
aI15263
aI12025
aI5349
aI4270
aI20571
aI17082
aI21835
aI6515
aI20449
aI6949
aI17617
aI4469
aI1787
aI18539
aI3304
aI23678
aI11667
aI15728
aI19136
aI3979
aI7367
aI2561
aI17252
aI20166
aI21314
aI12372
aI10142
aI17925
aI11583
aI22872
aI15954
aI9666
aI6388
aI8046
aI23925
aI6334
aI16460
aI12004
aI23211
aI22237
aI11794
aI12146
aI2761
aI11330
aI16436
aI13196
aI17790
aI18525
aI5435
aI21764
aI15321
aI2610
aI24191
aI4409
aI10610
aI9218
aI17006
aI2184
aI7046
aI12152
aI9588
aI9242
aI7553
aI23910
aI10741
aI22096
aI15442
aI18834
aI11725
aI20248
aI5619
aI21795
aI13099
aI24247
aI6210
aI14534
aI903
aI23391
aI20119
aI23457
aI18777
aI3546
aI6869
aI13300
aI8141
aI9503
aI15877
aI7947
aI12753
aI9414
aI18511
aI23758
aI7630
aI15748
aI3739
aI15417
aI20567
aI20057
aI3038
aI2995
aI23863
aI3889
aI7116
aI19428
aI20384
aI3402
aI10625
aI20351
aI16866
aI2251
aI9825
aI16791
aI11530
aI11992
aI12622
aI16295
aI2003
aI1560
aI23850
aI3871
aI20189
aI8309
aI4183
aI22675
aI18824
aI939
aI2474
aI21752
aI3765
aI20858
aI2005
aI11259
aI7786
aI3695
aI1897
aI17731
aI20953
aI21613
aI16141
aI8203
aI18361
aI6576
aI12375
aI6150
aI1058
aI890
aI10549
aI2827
aI3589
aI12487
aI3211
aI16413
aI16199
aI17612
aI19493
aI18902
aI21041
aI1102
aI2055
aI14564
aI3019
aI9262
aI23384
aI3753
aI15734
aI14130
aI4990
aI5956
aI20200
aI16464
aI8317
aI5393
aI123
aI1402
aI10082
aI16999
aI11155
aI17657
aI9606
aI8501
aI19510
aI5999
aI2533
aI6480
aI20254
aI11590
aI22323
aI16682
aI16372
aI1047
aI15250
aI9677
aI16119
aI15309
aI20286
aI4445
aI7368
aI5493
aI1893
aI20152
aI13646
aI18115
aI2440
aI5289
aI587
aI13383
aI710
aI10589
aI12318
aI17613
aI23265
aI16350
aI17968
aI11755
aI11897
aI21452
aI13101
aI13245
aI1077
aI3443
aI4632
aI14549
aI391
aI16725
aI3683
aI4304
aI21184
aI7
aI22466
aI3555
aI21236
aI8527
aI21760
aI13644
aI9027
aI2544
aI18330
aI17531
aI19354
aI23398
aI17396
aI15012
aI21163
aI13075
aI3956
aI18012
aI12398
aI23838
aI9727
aI21354
aI13437
aI15190
aI4839
aI2335
aI19037
aI23768
aI12189
aI5583
aI10445
aI24230
aI5338
aI6369
aI21598
aI18728
aI439
aI9427
aI8668
aI12114
aI4714
aI8232
aI12902
aI491
aI17880
aI14367
aI13484
aI10718
aI20780
aI9575
aI10282
aI7728
aI19290
aI17964
aI953
aI13475
aI8770
aI21674
aI20808
aI2841
aI7155
aI855
aI23300
aI9533
aI21467
aI18692
aI18009
aI24109
aI5757
aI23052
aI20347
aI12090
aI16903
aI20853
aI20630
aI11438
aI12501
aI22600
aI11038
aI11057
aI15860
aI339
aI9421
aI15354
aI273
aI5230
aI21323
aI13393
aI1974
aI13127
aI5329
aI1198
aI12396
aI5772
aI9047
aI14477
aI5462
aI642
aI5520
aI15234
aI21219
aI3842
aI23163
aI24068
aI5094
aI2957
aI4050
aI6614
aI8801
aI4147
aI10789
aI14883
aI13488
aI745
aI21525
aI3255
aI10930
aI516
aI8189
aI18936
aI14518
aI13869
aI7064
aI7568
aI13030
aI12481
aI6213
aI19384
aI18305
aI5754
aI12520
aI17822
aI4695
aI23613
aI17226
aI9822
aI10758
aI15466
aI338
aI17988
aI10018
aI21733
aI9493
aI9030
aI4370
aI7993
aI17591
aI5216
aI19717
aI1724
aI17262
aI2884
aI18568
aI17121
aI1663
aI13211
aI2887
aI5129
aI873
aI4746
aI5980
aI19104
aI22055
aI10401
aI8395
aI23
aI10483
aI15720
aI13916
aI14914
aI17809
aI1627
aI11403
aI9847
aI10833
aI1277
aI20278
aI17922
aI22887
aI10676
aI17466
aI1080
aI2091
aI14171
aI9781
aI7405
aI8607
aI4367
aI17156
aI16793
aI7150
aI22311
aI146
aI11680
aI8773
aI14868
aI10887
aI12447
aI19299
aI19169
aI7664
aI13764
aI7273
aI9389
aI14459
aI15632
aI9059
aI19270
aI1285
aI7463
aI11124
aI5917
aI9943
aI12805
aI10475
aI4732
aI11543
aI17257
aI11890
aI10769
aI24148
aI24003
aI24272
aI17923
aI6637
aI6285
aI18142
aI16267
aI16408
aI20677
aI3565
aI9327
aI10300
aI4567
aI2348
aI7731
aI11626
aI18805
aI15586
aI23392
aI14507
aI21398
aI18870
aI13581
aI6844
aI6309
aI23779
aI2513
aI2432
aI20488
aI719
aI2560
aI11600
aI9827
aI6877
aI22607
aI14446
aI5825
aI5894
aI14972
aI2305
aI1674
aI18143
aI19840
aI14545
aI18885
aI5802
aI3316
aI13239
aI23329
aI18085
aI97
aI4099
aI20013
aI18600
aI17209
aI2090
aI23569
aI3946
aI23676
aI18071
aI21972
aI7859
aI18922
aI8129
aI6499
aI17254
aI23389
aI18222
aI11085
aI12055
aI2233
aI19793
aI2050
aI13939
aI17628
aI14573
aI7190
aI19048
aI14318
aI22400
aI19067
aI5522
aI13401
aI18049
aI4680
aI17090
aI16961
aI3350
aI23571
aI14718
aI11741
aI23741
aI14405
aI5189
aI7438
aI5785
aI1042
aI22039
aI13277
aI4308
aI3354
aI16224
aI3819
aI14828
aI18637
aI11243
aI21441
aI13579
aI3242
aI19293
aI3205
aI14456
aI11118
aI4518
aI14297
aI410
aI3076
aI19976
aI585
aI13070
aI6312
aI23450
aI9236
aI21136
aI4092
aI8743
aI4528
aI10908
aI3925
aI9481
aI20457
aI2526
aI1029
aI14559
aI10921
aI19090
aI14483
aI14646
aI14942
aI15593
aI14593
aI15383
aI19602
aI13858
aI20138
aI3827
aI3219
aI2772
aI20595
aI13420
aI6022
aI13723
aI6084
aI13179
aI18982
aI20742
aI11455
aI2825
aI8144
aI9514
aI23199
aI4901
aI17422
aI16692
aI22344
aI18095
aI18339
aI4221
aI14064
aI2601
aI8633
aI6983
aI19633
aI4585
aI1210
aI3928
aI17157
aI2905
aI6921
aI23306
aI257
aI19990
aI9430
aI6391
aI13536
aI7972
aI3890
aI16271
aI17864
aI18620
aI8085
aI9230
aI20640
aI13616
aI11291
aI23162
aI10927
aI4411
aI19224
aI14223
aI4155
aI21545
aI9118
aI23220
aI20463
aI4194
aI21889
aI19930
aI9488
aI8636
aI14888
aI3206
aI690
aI17392
aI12577
aI4264
aI8779
aI8858
aI2111
aI16065
aI3131
aI14922
aI4216
aI23141
aI6417
aI22891
aI13975
aI15046
aI14752
aI17862
aI6478
aI7222
aI21636
aI8244
aI8004
aI21770
aI20965
aI12605
aI16798
aI10858
aI4332
aI211
aI258
aI5710
aI22210
aI8927
aI13898
aI17170
aI14022
aI14262
aI593
aI18823
aI19197
aI22216
aI7836
aI11206
aI10548
aI13955
aI17408
aI16861
aI12086
aI21912
aI1531
aI2431
aI7885
aI5879
aI15382
aI9621
aI12185
aI360
aI2790
aI23308
aI21887
aI23612
aI1999
aI22004
aI9845
aI9443
aI6267
aI14267
aI16261
aI9196
aI15715
aI19689
aI18710
aI17753
aI12663
aI16193
aI16288
aI20177
aI12905
aI15926
aI23705
aI7604
aI4180
aI16974
aI21527
aI22553
aI11840
aI19152
aI5482
aI16230
aI17236
aI9246
aI16789
aI17678
aI4583
aI14336
aI22854
aI57
aI2249
aI1148
aI11146
aI5359
aI3427
aI9768
aI10379
aI22769
aI13020
aI14912
aI8758
aI24134
aI2
aI18554
aI8935
aI5206
aI3676
aI13577
aI18853
aI17936
aI22780
aI5457
aI8675
aI17522
aI152
aI1544
aI9280
aI17212
aI15599
aI22305
aI9541
aI19711
aI13993
aI14464
aI10178
aI24217
aI8415
aI22157
aI3780
aI1592
aI10807
aI13087
aI798
aI5631
aI9135
aI22503
aI8287
aI528
aI12105
aI23278
aI4397
aI3367
aI91
aI20966
aI18366
aI17776
aI22125
aI21829
aI6708
aI9416
aI16884
aI18261
aI653
aI22703
aI17750
aI3455
aI22008
aI9696
aI1027
aI7828
aI8112
aI12383
aI2146
aI19588
aI4577
aI18894
aI22240
aI3560
aI24223
aI20489
aI3886
aI23476
aI24232
aI15584
aI18747
aI8561
aI22822
aI14389
aI2180
aI24137
aI22700
aI20063
aI10453
aI17756
aI15197
aI23325
aI19563
aI1103
aI23969
aI17097
aI10349
aI15486
aI6611
aI15523
aI6903
aI22173
aI20259
aI8427
aI20377
aI20785
aI8260
aI20637
aI22931
aI14058
aI17237
aI6377
aI4521
aI2966
aI2689
aI5854
aI7501
aI13084
aI2606
aI11019
aI13181
aI10774
aI4659
aI21436
aI20928
aI24291
aI5225
aI19083
aI19596
aI21172
aI7278
aI19639
aI9653
aI11352
aI19020
aI10435
aI4170
aI24149
aI12894
aI13550
aI15504
aI1404
aI20477
aI2256
aI21378
aI12148
aI1146
aI4826
aI23874
aI11343
aI4713
aI5200
aI14422
aI17031
aI7518
aI4897
aI3470
aI18114
aI17278
aI23022
aI14620
aI8305
aI23252
aI7687
aI8966
aI21001
aI10111
aI24024
aI5431
aI22734
aI5600
aI16661
aI2750
aI17049
aI10928
aI20345
aI9557
aI13141
aI3140
aI5640
aI16972
aI22869
aI23509
aI15365
aI1385
aI11607
aI8945
aI16936
aI21660
aI14695
aI13564
aI2494
aI11094
aI22375
aI23447
aI6701
aI20518
aI8655
aI4338
aI21991
aI6775
aI21995
aI5706
aI10614
aI8848
aI23202
aI6441
aI15002
aI21564
aI2701
aI262
aI12986
aI19003
aI11691
aI16635
aI1081
aI12564
aI16483
aI15327
aI8444
aI15531
aI14832
aI20587
aI18011
aI22094
aI17123
aI13354
aI19010
aI5670
aI5381
aI1229
aI17042
aI18669
aI21418
aI11382
aI18529
aI16878
aI22459
aI10881
aI19094
aI13098
aI16508
aI7250
aI6378
aI5507
aI13927
aI22312
aI12565
aI6860
aI16540
aI4065
aI13202
aI6056
aI16274
aI19954
aI12715
aI12717
aI5895
aI13183
aI17939
aI8817
aI20294
aI7910
aI3914
aI3460
aI4407
aI18182
aI2418
aI22437
aI4610
aI21199
aI15704
aI7008
aI13815
aI751
aI330
aI12167
aI12293
aI5460
aI5302
aI16358
aI11645
aI15111
aI20767
aI14531
aI11882
aI20073
aI18652
aI22471
aI14722
aI8745
aI10024
aI15973
aI3434
aI23242
aI17184
aI20929
aI13832
aI16876
aI3042
aI10703
aI7332
aI11585
aI10107
aI6310
aI21060
aI7558
aI18084
aI19488
aI1679
aI15700
aI5776
aI17818
aI14854
aI14225
aI8463
aI7628
aI1183
aI9713
aI7647
aI21424
aI4762
aI9686
aI14098
aI11205
aI1521
aI2350
aI10515
aI20799
aI17943
aI18944
aI14729
aI7471
aI8573
aI7893
aI20251
aI19775
aI1764
aI11526
aI8650
aI14709
aI16387
aI1434
aI10951
aI3982
aI11525
aI20564
aI7125
aI16822
aI22164
aI20085
aI13486
aI1977
aI1291
aI15742
aI15097
aI19612
aI19469
aI5275
aI14553
aI7009
aI4319
aI16466
aI16556
aI18721
aI21587
aI936
aI23302
aI16024
aI15028
aI14872
aI7600
aI7435
aI18908
aI5141
aI21945
aI19190
aI23669
aI17297
aI16072
aI18079
aI11360
aI11801
aI15311
aI1784
aI20205
aI10630
aI19405
aI22420
aI17695
aI8566
aI21836
aI22761
aI7210
aI20991
aI19168
aI23185
aI21331
aI8126
aI10007
aI13111
aI21037
aI12465
aI21434
aI8734
aI20892
aI24185
aI15897
aI19997
aI13312
aI2092
aI6149
aI13875
aI21446
aI20279
aI12541
aI8955
aI15249
aI24096
aI14903
aI4937
aI19595
aI15945
aI8646
aI7230
aI12927
aI16992
aI14521
aI16308
aI12321
aI11955
aI4398
aI17153
aI6258
aI344
aI1622
aI23254
aI1453
aI8346
aI7925
aI15149
aI22571
aI6532
aI2758
aI16812
aI13462
aI20826
aI18013
aI21869
aI1168
aI8022
aI14795
aI1511
aI3026
aI16410
aI21139
aI17437
aI21805
aI1719
aI14388
aI21207
aI17384
aI14777
aI21749
aI18476
aI6537
aI11495
aI16590
aI12632
aI2709
aI10461
aI18690
aI10365
aI23623
aI1024
aI18377
aI14557
aI11328
aI23238
aI1108
aI8118
aI4964
aI5615
aI19198
aI1888
aI780
aI17680
aI14656
aI6779
aI8679
aI10089
aI10286
aI22718
aI17956
aI804
aI2370
aI12120
aI13374
aI17682
aI10876
aI14771
aI15978
aI10477
aI20515
aI22331
aI4750
aI5246
aI428
aI8671
aI5659
aI9475
aI2511
aI10550
aI8128
aI12326
aI1135
aI9228
aI14042
aI12749
aI2782
aI16026
aI23733
aI15797
aI5106
aI11326
aI576
aI12633
aI19523
aI13949
aI2299
aI13482
aI20365
aI15803
aI1607
aI9643
aI16966
aI18598
aI6647
aI19378
aI829
aI11402
aI11225
aI374
aI7782
aI8535
aI9288
aI15733
aI6820
aI13255
aI21217
aI18623
aI3491
aI20997
aI13617
aI20584
aI13247
aI2522
aI22362
aI389
aI24114
aI15848
aI22613
aI9298
aI649
aI900
aI1091
aI6512
aI3720
aI18951
aI19194
aI11648
aI14849
aI364
aI9417
aI7414
aI12525
aI7827
aI16851
aI21275
aI11944
aI5472
aI23682
aI1479
aI9957
aI20506
aI11350
aI20019
aI6919
aI10856
aI22042
aI4490
aI20182
aI8622
aI15618
aI4226
aI18886
aI11634
aI347
aI2959
aI12370
aI19494
aI13046
aI11397
aI22389
aI17275
aI17540
aI20960
aI5538
aI17194
aI20448
aI2011
aI11952
aI7171
aI1122
aI7653
aI16166
aI5030
aI11056
aI7090
aI14403
aI11323
aI2504
aI7624
aI8462
aI10035
aI16004
aI14201
aI6678
aI23364
aI17636
aI5138
aI15958
aI10389
aI21336
aI20392
aI12088
aI612
aI5774
aI10028
aI17135
aI10071
aI18316
aI17515
aI8895
aI7136
aI16366
aI2298
aI12890
aI4802
aI4645
aI7880
aI1035
aI10490
aI13717
aI3814
aI21316
aI16495
aI8295
aI11727
aI8693
aI1462
aI9965
aI15889
aI17070
aI23582
aI8293
aI826
aI4506
aI8658
aI7007
aI553
aI15766
aI11345
aI2000
aI14730
aI16683
aI982
aI12448
aI7260
aI15342
aI14786
aI176
aI21663
aI18526
aI11661
aI8774
aI9623
aI1056
aI9364
aI5766
aI6186
aI306
aI15818
aI23765
aI8034
aI3002
aI266
aI8447
aI23100
aI7803
aI12119
aI8778
aI14365
aI13265
aI6361
aI21194
aI23587
aI18790
aI16908
aI23034
aI21701
aI8388
aI8685
aI5344
aI15137
aI20821
aI19979
aI9473
aI22390
aI6719
aI11782
aI10153
aI6635
aI2915
aI13133
aI3260
aI16834
aI20204
aI9803
aI2347
aI6068
aI7615
aI14848
aI7189
aI15919
aI14708
aI379
aI12051
aI5677
aI15220
aI12287
aI9461
aI15729
aI22519
aI5013
aI14634
aI18381
aI4425
aI14099
aI4640
aI7905
aI17919
aI15709
aI16695
aI17217
aI9609
aI12814
aI4983
aI12431
aI22858
aI5291
aI15826
aI10207
aI5693
aI11912
aI7862
aI6825
aI2943
aI9993
aI10146
aI21966
aI12699
aI3915
aI22429
aI3164
aI21927
aI1418
aI5628
aI21683
aI270
aI24231
aI4775
aI16005
aI3306
aI3498
aI16537
aI9665
aI5924
aI4320
aI18113
aI10719
aI15
aI23024
aI5721
aI11687
aI22451
aI16654
aI22916
aI3059
aI17548
aI11748
aI4785
aI10870
aI1086
aI22555
aI14954
aI5264
aI12424
aI8665
aI10501
aI19017
aI2083
aI8088
aI22651
aI16742
aI4316
aI11791
aI23673
aI9902
aI22845
aI1641
aI22559
aI13130
aI17253
aI22316
aI4116
aI16939
aI12678
aI18
aI14473
aI17860
aI14900
aI824
aI13003
aI4797
aI9239
aI13976
aI685
aI21529
aI1498
aI4741
aI14963
aI16126
aI14667
aI3327
aI4956
aI3718
aI9415
aI15390
aI18406
aI9708
aI11970
aI19690
aI18185
aI4912
aI19228
aI19222
aI13434
aI1189
aI663
aI14447
aI17463
aI2079
aI1079
aI24061
aI20820
aI21906
aI13791
aI15782
aI18409
aI17498
aI6189
aI13726
aI4927
aI19395
aI7177
aI23593
aI6964
aI14699
aI1428
aI5287
aI7335
aI1949
aI17757
aI1155
aI18029
aI7829
aI7076
aI620
aI4262
aI6223
aI2912
aI1066
aI4477
aI21160
aI1299
aI10996
aI21574
aI22706
aI21992
aI5591
aI17055
aI1896
aI4504
aI5238
aI1894
aI13746
aI12536
aI6276
aI2832
aI4177
aI21013
aI18015
aI12130
aI19357
aI5400
aI17561
aI13751
aI24066
aI7866
aI2857
aI10223
aI23274
aI4347
aI8816
aI3549
aI14851
aI21167
aI9608
aI7632
aI4310
aI10467
aI2429
aI5944
aI1929
aI23108
aI3379
aI7504
aI16697
aI17532
aI21688
aI5687
aI1699
aI17799
aI5526
aI1571
aI16616
aI22348
aI21440
aI8864
aI14207
aI7877
aI3135
aI1865
aI6042
aI2507
aI15389
aI13823
aI4562
aI6442
aI22999
aI170
aI5463
aI14750
aI6496
aI17438
aI4369
aI1009
aI12755
aI5166
aI2949
aI16283
aI8068
aI12195
aI188
aI10044
aI8722
aI23917
aI25
aI18910
aI19837
aI23373
aI8261
aI16071
aI13567
aI11301
aI901
aI17970
aI1204
aI323
aI5145
aI2697
aI8057
aI2322
aI13146
aI12846
aI21774
aI15429
aI6640
aI6574
aI8979
aI10820
aI20010
aI3445
aI16673
aI4726
aI20314
aI6154
aI18124
aI11578
aI15714
aI21921
aI3791
aI19609
aI14878
aI2109
aI17913
aI9305
aI9899
aI16509
aI2382
aI5984
aI21727
aI7460
aI2211
aI10855
aI12010
aI8301
aI10087
aI5555
aI21790
aI15174
aI22915
aI5389
aI15266
aI8096
aI13652
aI20912
aI14745
aI12248
aI14637
aI14682
aI16560
aI12923
aI23545
aI7932
aI7844
aI11023
aI15534
aI574
aI6790
aI9436
aI2999
aI12449
aI11282
aI9357
aI19773
aI17944
aI8981
aI16601
aI1463
aI7321
aI21824
aI3222
aI1312
aI19902
aI12791
aI6530
aI7162
aI23260
aI1260
aI17472
aI20714
aI1193
aI12444
aI6953
aI6874
aI18726
aI16192
aI5932
aI21610
aI23015
aI22723
aI20087
aI17067
aI10214
aI9791
aI102
aI5114
aI23288
aI13235
aI1762
aI14352
aI7019
aI17447
aI21491
aI11047
aI9456
aI7961
aI23095
aI3063
aI1420
aI4708
aI5803
aI6151
aI3344
aI8852
aI5569
aI14014
aI7712
aI10027
aI5843
aI13199
aI23799
aI16547
aI6065
aI12861
aI22900
aI22713
aI10954
aI17544
aI14275
aI9406
aI14663
aI15698
aI17697
aI14672
aI3382
aI18390
aI24206
aI4495
aI23911
aI22567
aI16174
aI20162
aI20547
aI16160
aI13153
aI7020
aI10584
aI16092
aI11165
aI21873
aI18671
aI18984
aI2653
aI10057
aI22069
aI10131
aI4523
aI19381
aI10208
aI23664
aI11475
aI23152
aI222
aI14113
aI1702
aI23674
aI5813
aI16357
aI9536
aI8996
aI7819
aI18781
aI16712
aI22195
aI2057
aI5464
aI5325
aI16463
aI4770
aI1917
aI15802
aI7513
aI18227
aI2627
aI9955
aI21965
aI20319
aI6643
aI1898
aI2917
aI14662
aI11822
aI22711
aI3194
aI8263
aI11440
aI23588
aI1883
aI20927
aI9193
aI6948
aI19467
aI15213
aI21423
aI24075
aI4789
aI13688
aI6103
aI21809
aI20888
aI19332
aI24146
aI6239
aI22264
aI10775
aI12883
aI18189
aI8863
aI1667
aI22733
aI18315
aI23241
aI17126
aI14158
aI11805
aI163
aI21933
aI9747
aI16912
aI24153
aI13785
aI7180
aI10464
aI11919
aI19095
aI19957
aI19589
aI23193
aI22550
aI15524
aI8241
aI11079
aI2724
aI19063
aI20568
aI17061
aI21932
aI17850
aI3521
aI23272
aI13714
aI5685
aI16214
aI18487
aI2705
aI14547
aI21875
aI21859
aI14369
aI19269
aI18191
aI6761
aI8915
aI15427
aI15526
aI639
aI24079
aI16211
aI20856
aI5297
aI7466
aI13805
aI11295
aI3649
aI1133
aI12334
aI22358
aI8781
aI9516
aI22291
aI15634
aI19894
aI1128
aI12158
aI7572
aI22036
aI14788
aI2188
aI18061
aI17824
aI18331
aI806
aI6273
aI24019
aI809
aI16782
aI12568
aI23629
aI20860
aI23127
aI7010
aI15206
aI22433
aI16156
aI2209
aI10084
aI5318
aI8432
aI9328
aI20859
aI14399
aI18509
aI6856
aI695
aI14025
aI13019
aI24243
aI10307
aI23480
aI20599
aI20672
aI15304
aI13642
aI18460
aI23271
aI20870
aI10212
aI19935
aI20863
aI23188
aI22309
aI22896
aI22015
aI1137
aI3604
aI18664
aI2132
aI5355
aI14123
aI5788
aI21058
aI3697
aI1737
aI12851
aI11445
aI13798
aI5308
aI10428
aI24017
aI9888
aI11651
aI17858
aI11421
aI8514
aI1324
aI16611
aI9715
aI23803
aI15144
aI9801
aI9168
aI12853
aI11031
aI16081
aI17293
aI21433
aI23347
aI16302
aI14830
aI12269
aI20932
aI6104
aI10837
aI22049
aI3325
aI23376
aI11339
aI16910
aI18662
aI3627
aI15329
aI15764
aI6907
aI21703
aI6153
aI12284
aI6406
aI19101
aI4662
aI24297
aI13910
aI18625
aI13954
aI15404
aI20479
aI5927
aI289
aI10738
aI12452
aI20852
aI23609
aI9839
aI19280
aI3033
aI6082
aI12242
aI14627
aI12768
aI8239
aI21498
aI20090
aI13509
aI21619
aI8166
aI5218
aI19541
aI23311
aI17616
aI6830
aI18462
aI5540
aI22077
aI11706
aI21215
aI20014
aI22141
aI17174
aI17357
aI2010
aI7110
aI21852
aI16991
aI17046
aI14368
aI14069
aI9444
aI16161
aI2831
aI24269
aI11988
aI15435
aI1720
aI6272
aI3909
aI5407
aI6114
aI8822
aI10728
aI1939
aI14184
aI3096
aI19831
aI22159
aI3953
aI19060
aI23880
aI15344
aI13330
aI20606
aI14333
aI7990
aI16368
aI11294
aI14591
aI9718
aI22804
aI7371
aI15391
aI19921
aI8597
aI3441
aI7835
aI6593
aI8138
aI23855
aI6422
aI13025
aI23416
aI19958
aI14756
aI3311
aI8137
aI6505
aI8300
aI12508
aI20007
aI7476
aI4536
aI4210
aI13941
aI23602
aI10371
aI5824
aI19350
aI10474
aI6455
aI13366
aI22538
aI3064
aI17631
aI5828
aI11767
aI22749
aI15983
aI21839
aI10026
aI17258
aI23236
aI1259
aI3022
aI21473
aI496
aI17717
aI13103
aI9253
aI9040
aI12081
aI16134
aI7399
aI14243
aI4346
aI16513
aI3301
aI17796
aI8951
aI7346
aI17011
aI3388
aI14759
aI1975
aI18689
aI3303
aI7024
aI18333
aI6050
aI21780
aI23496
aI5430
aI3949
aI2471
aI17418
aI8326
aI18879
aI5290
aI13806
aI5124
aI18328
aI14362
aI7379
aI4352
aI9377
aI13371
aI18307
aI6372
aI13907
aI12247
aI22754
aI24234
aI6504
aI16608
aI13974
aI9142
aI4026
aI12335
aI11571
aI14125
aI13762
aI700
aI17926
aI10478
aI3052
aI6923
aI4986
aI20256
aI17552
aI15987
aI21359
aI3045
aI5819
aI22439
aI18091
aI23047
aI23562
aI6222
aI21366
aI13116
aI480
aI5052
aI21124
aI10337
aI13865
aI24082
aI6623
aI10974
aI14944
aI469
aI18613
aI8707
aI7812
aI23907
aI1425
aI7949
aI2378
aI5401
aI572
aI23837
aI10600
aI24123
aI9032
aI11756
aI20405
aI23637
aI17530
aI14685
aI20604
aI9940
aI3062
aI23316
aI8528
aI7023
aI16041
aI16014
aI9620
aI16507
aI10226
aI10228
aI2163
aI22929
aI22715
aI13997
aI14233
aI17675
aI21296
aI17094
aI6725
aI16310
aI6852
aI17645
aI22006
aI23130
aI10151
aI1194
aI3413
aI22155
aI7087
aI18997
aI20331
aI3619
aI19611
aI8367
aI766
aI13362
aI1528
aI7285
aI7084
aI14220
aI1594
aI3578
aI3883
aI12745
aI12946
aI17912
aI524
aI1318
aI11586
aI20596
aI19812
aI11281
aI7015
aI7093
aI19291
aI10132
aI8844
aI11532
aI84
aI23186
aI13109
aI24054
aI24034
aI11357
aI18069
aI2640
aI16945
aI24215
aI12356
aI18197
aI7494
aI23734
aI9975
aI1327
aI2423
aI8461
aI21537
aI19108
aI21625
aI1824
aI20120
aI19628
aI167
aI21994
aI24055
aI13438
aI12279
aI3267
aI14361
aI8899
aI5260
aI12034
aI16062
aI5817
aI14247
aI22050
aI1351
aI18435
aI21459
aI441
aI7495
aI20523
aI21168
aI21203
aI23007
aI17962
aI21100
aI12672
aI6960
aI21026
aI18126
aI20748
aI8401
aI14002
aI13561
aI887
aI16707
aI7079
aI4730
aI12809
aI9353
aI13193
aI23634
aI7601
aI20240
aI19474
aI12144
aI11759
aI19807
aI12503
aI16418
aI6695
aI13015
aI12736
aI21893
aI13961
aI668
aI20103
aI2359
aI19924
aI14295
aI3395
aI17567
aI22727
aI4702
aI24275
aI21702
aI9368
aI23659
aI15694
aI23677
aI14615
aI21088
aI16309
aI3660
aI17363
aI9661
aI17748
aI13539
aI6135
aI11602
aI617
aI3736
aI21260
aI8483
aI5500
aI2657
aI2717
aI19910
aI10448
aI6965
aI12731
aI282
aI115
aI15459
aI15660
aI5557
aI9962
aI12270
aI19620
aI16017
aI7806
aI7659
aI4474
aI13527
aI7070
aI3853
aI21846
aI4891
aI23359
aI10968
aI4889
aI5534
aI11511
aI6724
aI13638
aI14757
aI1340
aI13903
aI1583
aI23841
aI7119
aI18156
aI5518
aI24139
aI8777
aI14000
aI378
aI18119
aI9145
aI1656
aI16355
aI18357
aI3630
aI20589
aI10348
aI2403
aI4494
aI14688
aI11218
aI15866
aI5412
aI17230
aI15960
aI12173
aI9951
aI23791
aI12127
aI17767
aI2368
aI8887
aI7028
aI12339
aI3505
aI3942
aI11214
aI11860
aI15248
aI9376
aI20849
aI6677
aI9636
aI459
aI740
aI15982
aI2570
aI3856
aI11198
aI5377
aI19749
aI101
aI18246
aI18475
aI22851
aI5933
aI24266
aI11389
aI17700
aI7930
aI11461
aI6494
aI8956
aI18949
aI2602
aI15587
aI21437
aI3203
aI21084
aI20607
aI18427
aI2684
aI3669
aI15562
aI18347
aI23102
aI22121
aI21397
aI2962
aI15993
aI10377
aI3891
aI3807
aI3815
aI3414
aI9738
aI2767
aI11723
aI18087
aI5169
aI21845
aI22618
aI4297
aI10009
aI21980
aI4951
aI15548
aI4068
aI19156
aI10966
aI2645
aI3665
aI1639
aI7742
aI15284
aI18150
aI4978
aI5092
aI3144
aI1116
aI4551
aI978
aI16012
aI4156
aI433
aI2046
aI23537
aI21054
aI14
aI23834
aI6594
aI14162
aI19900
aI1165
aI1671
aI9109
aI22023
aI546
aI13118
aI10701
aI23287
aI10327
aI23156
aI15933
aI10152
aI9823
aI22446
aI7326
aI12302
aI1426
aI14089
aI15579
aI1543
aI6270
aI2316
aI3504
aI1534
aI10830
aI16393
aI2549
aI17605
aI9183
aI23315
aI19328
aI21984
aI6458
aI4416
aI18489
aI20969
aI601
aI3729
aI23622
aI18500
aI13932
aI21596
aI22643
aI3782
aI8660
aI18022
aI7643
aI4059
aI18773
aI3154
aI24177
aI130
aI14209
aI1546
aI7228
aI11976
aI9526
aI14904
aI3874
aI23519
aI1730
aI18412
aI3384
aI113
aI5157
aI18734
aI10381
aI9967
aI5818
aI19440
aI13341
aI15175
aI9759
aI2252
aI6322
aI14577
aI6059
aI3253
aI1665
aI994
aI18452
aI12637
aI2817
aI14601
aI6995
aI9853
aI696
aI5775
aI1965
aI3913
aI23796
aI19766
aI12507
aI1160
aI6343
aI17098
aI18981
aI19537
aI4368
aI12583
aI13208
aI438
aI4819
aI307
aI2493
aI21353
aI10852
aI20034
aI22397
aI12282
aI18962
aI5572
aI16131
aI4960
aI3989
aI20185
aI6185
aI1809
aI19896
aI13079
aI9784
aI15107
aI10409
aI16595
aI20292
aI6263
aI50
aI8077
aI15203
aI3796
aI22791
aI17039
aI10579
aI3595
aI15640
aI2749
aI12315
aI10502
aI3523
aI22080
aI6126
aI3905
aI24105
aI20146
aI13669
aI16084
aI23627
aI1721
aI21680
aI13388
aI20764
aI17972
aI13395
aI12327
aI22020
aI227
aI13943
aI8083
aI12241
aI419
aI12801
aI24084
aI13440
aI12122
aI16320
aI8715
aI10991
aI10854
aI18420
aI5977
aI15940
aI6119
aI21417
aI14073
aI14982
aI13254
aI23721
aI15674
aI6281
aI12540
aI3906
aI12312
aI9331
aI2659
aI7364
aI10750
aI2625
aI7688
aI21245
aI14829
aI11032
aI17111
aI7066
aI10636
aI12203
aI13944
aI23449
aI19119
aI12132
aI7338
aI21282
aI877
aI14980
aI2878
aI4051
aI20591
aI10097
aI12845
aI18675
aI470
aI18028
aI17832
aI18556
aI12367
aI7464
aI2069
aI14451
aI12552
aI20968
aI23167
aI9043
aI7214
aI15017
aI5536
aI7427
aI22969
aI12705
aI19175
aI19796
aI14645
aI12651
aI1483
aI9826
aI23491
aI9990
aI16059
aI23506
aI14458
aI465
aI1604
aI8954
aI13234
aI5566
aI6364
aI7911
aI12676
aI1997
aI41
aI13924
aI11854
aI8297
aI4957
aI21291
aI14120
aI1640
aI22412
aI16790
aI18711
aI3362
aI17878
aI23411
aI12115
aI3265
aI3570
aI7490
aI7199
aI22053
aI3401
aI23844
aI17402
aI16397
aI9080
aI11184
aI22186
aI9052
aI13915
aI11902
aI2778
aI432
aI23802
aI20522
aI19583
aI19116
aI20686
aI1562
aI17836
aI560
aI12028
aI19145
aI10586
aI11227
aI10304
aI5667
aI14314
aI20800
aI21797
aI20741
aI23065
aI17327
aI11202
aI20378
aI13913
aI6287
aI10190
aI15502
aI6954
aI21091
aI6111
aI17125
aI23921
aI11105
aI2304
aI1478
aI7422
aI3146
aI16587
aI1092
aI21913
aI5734
aI1565
aI15812
aI13148
aI15457
aI9296
aI23520
aI15773
aI5233
aI16641
aI15592
aI21630
aI9085
aI12530
aI6057
aI13770
aI3336
aI11042
aI453
aI11928
aI9682
aI9365
aI9592
aI2189
aI18478
aI18161
aI13221
aI13227
aI552
aI19409
aI13368
aI22531
aI18665
aI9471
aI5511
aI21551
aI18553
aI11446
aI21112
aI19844
aI16922
aI6046
aI13262
aI12664
aI20738
aI22750
aI15594
aI17492
aI19577
aI22438
aI24268
aI251
aI17026
aI21784
aI6902
aI15011
aI8537
aI15135
aI17241
aI8667
aI12473
aI4872
aI5134
aI20717
aI13666
aI192
aI16002
aI12995
aI17507
aI14063
aI9049
aI22247
aI3927
aI23136
aI1568
aI2611
aI11635
aI11464
aI16829
aI109
aI10744
aI15271
aI23964
aI7532
aI1394
aI8237
aI14720
aI21615
aI6120
aI20340
aI13469
aI17225
aI6582
aI20459
aI21987
aI12980
aI21161
aI19788
aI14116
aI23063
aI22425
aI537
aI16364
aI18370
aI15891
aI13194
aI22741
aI4823
aI22285
aI10092
aI4072
aI16577
aI12677
aI1859
aI21669
aI9020
aI14765
aI1271
aI11084
aI4767
aI14376
aI2285
aI17282
aI13501
aI983
aI20861
aI6461
aI13881
aI21549
aI18916
aI17411
aI9129
aI8866
aI20091
aI22888
aI23927
aI3081
aI7956
aI4968
aI11950
aI17314
aI18657
aI19075
aI3229
aI14471
aI23021
aI518
aI17309
aI1335
aI24157
aI15609
aI8759
aI9944
aI8766
aI10021
aI19139
aI13278
aI24197
aI11498
aI21401
aI4129
aI5150
aI19719
aI2029
aI22046
aI2104
aI21482
aI2810
aI14671
aI16123
aI15288
aI21045
aI3557
aI10987
aI12483
aI12359
aI21403
aI22214
aI21880
aI22596
aI16943
aI11471
aI17496
aI2655
aI19961
aI23321
aI6237
aI2269
aI4100
aI20502
aI4008
aI24107
aI9630
aI2708
aI16359
aI8571
aI3440
aI20299
aI11833
aI5288
aI941
aI19023
aI2738
aI2158
aI8608
aI9099
aI3023
aI12
aI7983
aI5902
aI7151
aI3385
aI16918
aI12414
aI68
aI308
aI69
aI10685
aI4263
aI19615
aI23840
aI1099
aI2175
aI20737
aI22955
aI13457
aI11139
aI8161
aI5656
aI13414
aI599
aI21252
aI23305
aI12040
aI19252
aI16036
aI7771
aI18359
aI14793
aI21721
aI18213
aI11024
aI21843
aI18845
aI7376
aI13799
aI12602
aI20353
aI6901
aI12944
aI22917
aI19149
aI15146
aI19388
aI6095
aI17197
aI7013
aI14910
aI7058
aI16279
aI18169
aI1525
aI11377
aI2128
aI18020
aI24162
aI1023
aI6850
aI3429
aI4082
aI17190
aI14790
aI2979
aI1059
aI18047
aI10711
aI8072
aI856
aI11066
aI11102
aI3178
aI22107
aI16314
aI23601
aI8988
aI1492
aI16881
aI19923
aI5110
aI1449
aI7375
aI15212
aI18463
aI21239
aI15398
aI17106
aI3674
aI9304
aI24115
aI16253
aI16978
aI372
aI23747
aI19599
aI4294
aI1471
aI4251
aI4886
aI10817
aI11253
aI10263
aI2903
aI21681
aI1381
aI13138
aI19478
aI157
aI4844
aI7804
aI15007
aI21799
aI327
aI23824
aI11173
aI18618
aI15465
aI22274
aI18059
aI15426
aI3702
aI11778
aI19841
aI4206
aI6294
aI11938
aI15643
aI4875
aI4089
aI3620
aI1553
aI21042
aI2015
aI23869
aI6944
aI7960
aI13868
aI1415
aI8819
aI11423
aI23327
aI8871
aI14589
aI4111
aI351
aI11711
aI3614
aI18016
aI14347
aI9786
aI4067
aI4856
aI19212
aI23481
aI10902
aI18407
aI21152
aI13586
aI23689
aI5532
aI10621
aI5453
aI9265
aI8672
aI19789
aI2774
aI12984
aI4830
aI17579
aI16488
aI16215
aI4473
aI6436
aI12058
aI4778
aI18324
aI1046
aI23143
aI17455
aI7312
aI253
aI5422
aI13429
aI4336
aI20306
aI9268
aI7621
aI6113
aI20625
aI18722
aI17924
aI19310
aI23035
aI15955
aI22799
aI23350
aI7493
aI19146
aI2450
aI19086
aI17
aI20979
aI16687
aI18100
aI10108
aI24132
aI5761
aI14163
aI4293
aI15959
aI238
aI7520
aI18247
aI11309
aI6038
aI9618
aI4106
aI11657
aI14984
aI15043
aI9028
aI13833
aI8254
aI7690
aI286
aI1606
aI22884
aI16252
aI14398
aI22232
aI814
aI5888
aI20815
aI12232
aI2823
aI1467
aI6275
aI8091
aI22267
aI23253
aI3088
aI9831
aI10253
aI10221
aI11807
aI9452
aI17867
aI23808
aI12096
aI14782
aI13154
aI18804
aI11747
aI7561
aI3970
aI2264
aI10425
aI10249
aI9346
aI15261
aI3622
aI17250
aI14618
aI23475
aI22364
aI13783
aI14821
aI21989
aI16064
aI21555
aI1052
aI1121
aI4942
aI3048
aI1926
aI11529
aI8204
aI8349
aI14694
aI3932
aI23296
aI6183
aI23606
aI477
aI3672
aI13178
aI18580
aI14679
aI7682
aI22040
aI21407
aI19184
aI23294
aI4001
aI13687
aI23683
aI10251
aI7599
aI20362
aI22188
aI13696
aI3108
aI17935
aI14579
aI17794
aI8542
aI20588
aI6700
aI12600
aI21195
aI8414
aI22682
aI20803
aI22063
aI16249
aI10040
aI22381
aI15791
aI23614
aI9789
aI15413
aI22668
aI8757
aI5921
aI5510
aI8175
aI17372
aI22712
aI15845
aI5240
aI18288
aI12049
aI2499
aI21595
aI18768
aI13885
aI5497
aI11152
aI6734
aI9811
aI4959
aI2626
aI3012
aI19729
aI14302
aI17838
aI1643
aI2058
aI2861
aI7231
aI2013
aI18282
aI18717
aI17981
aI19899
aI8007
aI12770
aI17885
aI13114
aI5654
aI14200
aI20621
aI1850
aI19649
aI10321
aI20101
aI4019
aI1220
aI5492
aI2491
aI1380
aI5283
aI19761
aI4636
aI18985
aI4602
aI20914
aI23788
aI12187
aI8121
aI2261
aI11053
aI20325
aI17662
aI20272
aI18319
aI13163
aI23045
aI2862
aI9774
aI21164
aI14172
aI23082
aI8160
aI22293
aI5281
aI15303
aI2890
aI12436
aI12534
aI20772
aI18181
aI17069
aI20846
aI13149
aI22122
aI15981
aI14809
aI19401
aI15083
aI16206
aI19482
aI23862
aI5181
aI21710
aI17047
aI3636
aI22172
aI18292
aI4729
aI11636
aI24086
aI17322
aI17933
aI22686
aI24168
aI17232
aI22586
aI21080
aI18327
aI21646
aI16795
aI23718
aI7822
aI23042
aI12407
aI23904
aI16167
aI12061
aI24117
aI5370
aI21901
aI14463
aI20505
aI19276
aI3854
aI6306
aI22018
aI19540
aI14650
aI11942
aI451
aI3239
aI22252
aI18889
aI22442
aI19909
aI400
aI17720
aI4638
aI9076
aI14410
aI8247
aI4049
aI558
aI13619
aI11658
aI7698
aI20028
aI4928
aI5856
aI12722
aI8985
aI8583
aI21180
aI10745
aI12626
aI15604
aI3745
aI13140
aI9555
aI2674
aI8965
aI20171
aI13318
aI9506
aI22934
aI14340
aI13425
aI7111
aI10731
aI17641
aI16815
aI13271
aI8264
aI15887
aI2364
aI16037
aI4211
aI23267
aI2399
aI7057
aI4460
aI3195
aI18555
aI468
aI2630
aI15805
aI12888
aI8975
aI2051
aI15731
aI18346
aI1207
aI13042
aI3454
aI4078
aI3238
aI19869
aI12202
aI13413
aI24221
aI705
aI6780
aI7477
aI6311
aI12859
aI7224
aI22026
aI5703
aI2618
aI21460
aI18803
aI676
aI13656
aI16800
aI10577
aI22370
aI11957
aI18703
aI16432
aI18993
aI6116
aI15186
aI14486
aI15776
aI5806
aI21690
aI984
aI3730
aI8369
aI11050
aI17535
aI16293
aI24059
aI2668
aI12864
aI450
aI12029
aI18709
aI22467
aI22766
aI1406
aI4004
aI10469
aI6140
aI11474
aI20531
aI22408
aI12833
aI13298
aI14681
aI1331
aI3641
aI4097
aI23064
aI21572
aI13156
aI409
aI13053
aI23059
aI10595
aI3887
aI22460
aI19034
aI11535
aI6300
aI10269
aI2820
aI12669
aI1858
aI79
aI14768
aI16324
aI13321
aI10524
aI15185
aI21981
aI8911
aI18660
aI1828
aI21762
aI5399
aI8063
aI17353
aI13024
aI23746
aI23633
aI7441
aI6238
aI20439
aI4343
aI15793
aI4428
aI4603
aI20257
aI18270
aI5090
aI10761
aI1634
aI3075
aI16421
aI1536
aI12701
aI4669
aI6939
aI13741
aI12911
aI7016
aI6410
aI8919
aI5366
aI21533
aI16708
aI13973
aI11071
aI9602
aI10521
aI15324
aI5883
aI15839
aI1952
aI3704
aI3790
aI15370
aI20893
aI20668
aI16457
aI7717
aI19579
aI23017
aI6607
aI1712
aI1355
aI8120
aI1298
aI15340
aI20102
aI4395
aI10939
aI10069
aI3137
aI23189
aI8941
aI12933
aI12913
aI9996
aI2343
aI18942
aI16291
aI4403
aI5908
aI2323
aI18393
aI17658
aI13120
aI15869
aI6497
aI21540
aI17775
aI16913
aI484
aI13532
aI1456
aI20238
aI19515
aI6685
aI9785
aI4136
aI239
aI1632
aI2259
aI9079
aI2801
aI23072
aI14395
aI3100
aI8682
aI14676
aI1487
aI556
aI14319
aI17677
aI9629
aI4017
aI1722
aI8536
aI4970
aI15091
aI12347
aI5485
aI24182
aI16942
aI14079
aI7855
aI12616
aI21508
aI10538
aI4554
aI11830
aI16486
aI15638
aI10116
aI4465
aI16246
aI1524
aI9167
aI23956
aI120
aI19854
aI23313
aI6328
aI20492
aI20575
aI3770
aI14508
aI22287
aI21639
aI22092
aI12690
aI5907
aI19018
aI550
aI8162
aI11618
aI22640
aI22561
aI16749
aI20551
aI24074
aI4790
aI10955
aI22284
aI16115
aI17526
aI9580
aI834
aI1733
aI18772
aI3687
aI9147
aI4417
aI16864
aI14375
aI15885
aI18355
aI13269
aI19550
aI20190
aI20793
aI21228
aI18860
aI15165
aI22174
aI22993
aI2752
aI22631
aI8382
aI7810
aI20841
aI22249
aI3067
aI21612
aI21225
aI19340
aI4972
aI7302
aI7320
aI7639
aI217
aI22644
aI16390
aI18755
aI13554
aI17041
aI5909
aI21268
aI23417
aI4063
aI21188
aI7113
aI8209
aI9375
aI21761
aI11250
aI20380
aI5558
aI9705
aI10048
aI16412
aI17650
aI18970
aI1673
aI11570
aI19155
aI12896
aI8438
aI4909
aI17708
aI10485
aI4832
aI14084
aI7794
aI5731
aI13497
aI23559
aI8439
aI21312
aI1920
aI10976
aI762
aI23297
aI9197
aI12186
aI9538
aI20458
aI13557
aI13224
aI1480
aI1756
aI17346
aI17051
aI17446
aI20947
aI14675
aI19672
aI20829
aI10328
aI376
aI8426
aI8503
aI15559
aI3183
aI23014
aI13411
aI11276
aI11692
aI13895
aI7025
aI3191
aI15914
aI10101
aI16047
aI7768
aI19512
aI11411
aI14551
aI18385
aI11472
aI16013
aI8190
aI11995
aI15067
aI9966
aI12841
aI2449
aI19150
aI2967
aI10384
aI3371
aI865
aI63
aI13838
aI20789
aI1269
aI388
aI3561
aI17575
aI1397
aI21472
aI23328
aI20129
aI13841
aI6908
aI16666
aI24233
aI21481
aI2661
aI20989
aI24282
aI3136
aI1118
aI16434
aI22521
aI7404
aI12774
aI7305
aI17741
aI22045
aI3068
aI12908
aI20585
aI20438
aI8236
aI1923
aI20525
aI11627
aI3735
aI6216
aI9808
aI14059
aI12937
aI7968
aI17146
aI2666
aI16433
aI2814
aI6973
aI13810
aI10888
aI7773
aI3900
aI17831
aI16569
aI13867
aI22301
aI15070
aI7545
aI8709
aI1749
aI20925
aI24051
aI12652
aI13337
aI17547
aI10972
aI14680
aI21716
aI20975
aI22635
aI7937
aI12150
aI12468
aI16926
aI7789
aI13253
aI17665
aI21804
aI13022
aI5704
aI19875
aI11783
aI4526
aI17713
aI22487
aI6352
aI18685
aI22152
aI5588
aI17283
aI16183
aI15164
aI6654
aI13634
aI10488
aI7802
aI10232
aI16584
aI24242
aI5072
aI18048
aI15910
aI21892
aI6626
aI9177
aI1005
aI8356
aI21963
aI18727
aI22516
aI18351
aI12793
aI21803
aI15265
aI16478
aI15701
aI17975
aI17004
aI8472
aI6419
aI1167
aI21237
aI16706
aI7873
aI9277
aI15341
aI12472
aI4074
aI5217
aI6198
aI13240
aI19183
aI23356
aI20872
aI4615
aI21477
aI24000
aI12973
aI6977
aI17429
aI9936
aI21141
aI22342
aI21050
aI18871
aI10842
aI11192
aI4314
aI18748
aI13313
aI9370
aI17469
aI17667
aI20546
aI18959
aI10061
aI4616
aI9576
aI20731
aI19752
aI17477
aI4600
aI4145
aI8532
aI23843
aI19192
aI1170
aI19912
aI11485
aI22779
aI7916
aI4812
aI13212
aI15156
aI23331
aI4010
aI13214
aI11980
aI4257
aI18226
aI16392
aI15356
aI22368
aI13871
aI9712
aI18670
aI16099
aI21031
aI24122
aI5020
aI14678
aI21438
aI7387
aI21238
aI23887
aI19015
aI3431
aI23516
aI20241
aI22304
aI18758
aI12856
aI17329
aI260
aI16407
aI23594
aI11077
aI6540
aI18459
aI8689
aI23772
aI13391
aI13477
aI20364
aI7003
aI2482
aI13800
aI19471
aI3616
aI9861
aI7197
aI19180
aI22563
aI8610
aI4105
aI3651
aI4269
aI23180
aI9626
aI5954
aI19031
aI16875
aI6753
aI15200
aI16923
aI1941
aI6299
aI19519
aI19636
aI3566
aI832
aI13282
aI9540
aI23529
aI19644
aI11140
aI10267
aI10980
aI15686
aI12047
aI17545
aI15076
aI9635
aI22536
aI3422
aI21293
aI23782
aI523
aI14612
aI16236
aI22876
aI23949
aI4055
aI13435
aI10258
aI21377
aI12442
aI13597
aI15060
aI7160
aI10094
aI18930
aI21662
aI5414
aI20214
aI21788
aI9441
aI2690
aI8202
aI9215
aI2148
aI15087
aI19193
aI733
aI1051
aI12742
aI18990
aI7681
aI15721
aI17927
aI15453
aI13284
aI5387
aI16909
aI14003
aI5937
aI22205
aI13010
aI5575
aI6347
aI9958
aI15290
aI10103
aI9031
aI23291
aI6259
aI5063
aI17048
aI4242
aI22736
aI396
aI7088
aI15808
aI19627
aI16339
aI20389
aI6675
aI4704
aI3448
aI20629
aI12526
aI24056
aI19264
aI3150
aI6332
aI15798
aI21848
aI18839
aI23919
aI5807
aI11104
aI5321
aI16917
aI22803
aI22868
aI9987
aI13964
aI19209
aI18042
aI1891
aI19099
aI1048
aI7872
aI22556
aI721
aI4331
aI18090
aI19043
aI18798
aI2505
aI14748
aI521
aI14263
aI5573
aI996
aI19685
aI10016
aI15456
aI1279
aI35
aI5892
aI2546
aI8900
aI7481
aI5796
aI14495
aI9868
aI11221
aI9163
aI913
aI11303
aI13204
aI21272
aI2910
aI8410
aI14760
aI12451
aI5797
aI1775
aI18624
aI22478
aI14129
aI1958
aI18745
aI18666
aI6021
aI1855
aI11223
aI17916
aI14374
aI14541
aI7126
aI11589
aI20545
aI2615
aI10143
aI186
aI9004
aI24219
aI5530
aI139
aI19100
aI10305
aI5191
aI17894
aI9115
aI22880
aI21410
aI19273
aI15305
aI17292
aI18545
aI19191
aI6752
aI17594
aI9380
aI6711
aI13781
aI17514
aI19811
aI781
aI8684
aI24290
aI20918
aI12539
aI13856
aI627
aI16079
aI11169
aI20335
aI7219
aI7527
aI5861
aI7975
aI5121
aI12246
aI9833
aI12915
aI190
aI13883
aI10067
aI7423
aI14356
aI1573
aI17195
aI11579
aI4220
aI5465
aI14609
aI20992
aI11185
aI6961
aI4654
aI15350
aI19528
aI17971
aI9210
aI4280
aI18291
aI7837
aI1610
aI20707
aI8870
aI7499
aI2818
aI3836
aI6091
aI15377
aI13323
aI10847
aI6557
aI3692
aI23958
aI18785
aI1759
aI7602
aI4035
aI22996
aI3904
aI17840
aI10191
aI6033
aI15974
aI11122
aI20614
aI12153
aI4281
aI16900
aI2032
aI16868
aI19559
aI16239
aI12630
aI18023
aI6348
aI18967
aI16954
aI21641
aI6266
aI15956
aI14230
aI23114
aI3060
aI4348
aI7439
aI1127
aI15844
aI15664
aI15787
aI2996
aI692
aI22263
aI15652
aI14897
aI20184
aI23173
aI11564
aI16624
aI14636
aI21066
aI21632
aI9112
aI14961
aI1358
aI275
aI19006
aI23720
aI19815
aI3724
aI3313
aI14074
aI3991
aI8806
aI10351
aI16617
aI9405
aI10157
aI6933
aI23455
aI10457
aI10596
aI17546
aI20665
aI12982
aI14429
aI17144
aI6402
aI4771
aI13779
aI10512
aI19855
aI14070
aI21193
aI13836
aI20725
aI17979
aI2813
aI738
aI7651
aI14277
aI11596
aI10217
aI8038
aI4694
aI4537
aI20022
aI15052
aI1595
aI12172
aI17792
aI23224
aI4359
aI14658
aI21052
aI18630
aI6506
aI21897
aI5662
aI11166
aI10388
aI15093
aI11028
aI9556
aI8490
aI1698
aI8014
aI20234
aI14584
aI19524
aI19631
aI6032
aI9221
aI16581
aI6254
aI16780
aI23753
aI13873
aI16201
aI21985
aI1874
aI19724
aI5489
aI2573
aI19926
aI13947
aI20136
aI11784
aI5778
aI22577
aI13237
aI14218
aI9053
aI23940
aI17559
aI7856
aI7734
aI20078
aI8030
aI15134
aI7262
aI3465
aI9150
aI2367
aI11241
aI2821
aI19456
aI9960
aI434
aI20827
aI6864
aI5327
aI18610
aI9337
aI17580
aI1393
aI17527
aI13430
aI10555
aI586
aI20781
aI8522
aI13505
aI16632
aI1039
aI21521
aI8551
aI8516
aI20271
aI24279
aI18813
aI16871
aI13279
aI10317
aI12670
aI15633
aI12667
aI823
aI14596
aI8292
aI23053
aI8229
aI15143
aI1087
aI8688
aI15422
aI17374
aI7739
aI20245
aI7429
aI5563
aI9650
aI9545
aI22599
aI14061
aI13995
aI15064
aI6845
aI1608
aI12963
aI21538
aI2402
aI22044
aI4287
aI2663
aI9152
aI7976
aI3433
aI7915
aI4181
aI21856
aI1282
aI15065
aI4697
aI18175
aI7870
aI4637
aI5236
aI13524
aI23390
aI18301
aI1841
aI17182
aI11052
aI6555
aI22980
aI19686
aI17014
aI4041
aI20597
aI8691
aI19668
aI1882
aI19504
aI2142
aI12589
aI9770
aI10312
aI3575
aI1728
aI6427
aI8814
aI21782
aI16867
aI976
aI7052
aI9667
aI2157
aI20948
aI17722
aI22821
aI13463
aI22310
aI2984
aI5367
aI2726
aI15932
aI16426
aI20902
aI8740
aI4307
aI43
aI17712
aI4930
aI19230
aI14051
aI14444
aI2964
aI246
aI8587
aI22670
aI17853
aI3964
aI1768
aI3241
aI14808
aI7182
aI22292
aI5334
aI4394
aI18737
aI14249
aI20390
aI23037
aI8418
aI3040
aI5982
aI7857
aI8983
aI15936
aI24060
aI21740
aI2225
aI9947
aI15061
aI3249
aI1816
aI2759
aI458
aI20685
aI22258
aI9701
aI16225
aI3543
aI17319
aI11370
aI19014
aI2301
aI17213
aI19653
aI22169
aI11238
aI23626
aI23159
aI375
aI24125
aI14840
aI9890
aI21351
aI9110
aI3202
aI16571
aI21387
aI22244
aI22911
aI421
aI9097
aI14602
aI9148
aI9737
aI1530
aI9731
aI21185
aI7577
aI20416
aI3157
aI23548
aI14997
aI19932
aI22609
aI2496
aI12555
aI19503
aI17147
aI14827
aI7860
aI10010
aI5997
aI21166
aI4231
aI10660
aI20526
aI7117
aI7775
aI12734
aI444
aI1257
aI3821
aI17773
aI2328
aI20088
aI16535
aI20260
aI22182
aI5162
aI23881
aI17817
aI17600
aI24184
aI6016
aI3119
aI12376
aI20092
aI7091
aI23589
aI17354
aI1842
aI11470
aI10552
aI12971
aI5088
aI8164
aI13382
aI13645
aI7938
aI6302
aI9551
aI7754
aI22847
aI2897
aI11030
aI8304
aI6794
aI2732
aI15875
aI19326
aI16130
aI12712
aI24246
aI5369
aI4033
aI20985
aI13596
aI21546
aI14466
aI20318
aI22448
aI11608
aI21589
aI16331
aI5257
aI23617
aI5725
aI3826
aI907
aI1866
aI9
aI17272
aI16719
aI5161
aI4075
aI12003
aI18495
aI8556
aI14092
aI14312
aI1727
aI15386
aI19007
aI17476
aI4903
aI15607
aI23097
aI11070
aI8545
aI19514
aI6770
aI12954
aI20916
aI23418
aI4420
aI8810
aI511
aI12177
aI9889
aI5762
aI20739
aI2613
aI3869
aI15823
aI4502
aI5881
aI392
aI3077
aI9258
aI12596
aI5821
aI11697
aI17149
aI858
aI5782
aI4758
aI15484
aI290
aI18371
aI11824
aI22639
aI4517
aI5915
aI1886
aI21961
aI5715
aI8680
aI6687
aI11823
aI3493
aI8876
aI23723
aI3596
aI22551
aI7021
aI6894
aI4535
aI21361
aI17265
aI10197
aI14326
aI2242
aI20225
aI13397
aI14221
aI3707
aI13568
aI18770
aI9659
aI4873
aI15034
aI16085
aI12324
aI13471
aI21851
aI9859
aI7100
aI21430
aI15696
aI1650
aI17439
aI21476
aI20072
aI17996
aI7716
aI17359
aI22187
aI11505
aI16329
aI10899
aI19449
aI11803
aI4507
aI5437
aI6324
aI3536
aI5215
aI12151
aI8599
aI6373
aI986
aI11673
aI19135
aI22022
aI2354
aI5276
aI3509
aI4739
aI7642
aI5040
aI864
aI2458
aI17348
aI15553
aI6013
aI22676
aI17349
aI18762
aI13538
aI6591
aI12126
aI14753
aI22230
aI18876
aI1232
aI19934
aI8039
aI12757
aI6806
aI10125
aI11018
aI18008
aI19045
aI5163
aI19247
aI1516
aI23932
aI9024
aI23355
aI17959
aI12782
aI20266
aI17622
aI20137
aI23717
aI19727
aI22526
aI18926
aI11848
aI18003
aI10261
aI21746
aI21998
aI18037
aI3533
aI24092
aI20582
aI3214
aI10278
aI17176
aI8352
aI10754
aI15951
aI10510
aI22279
aI3653
aI11641
aI4686
aI24147
aI13788
aI16546
aI22954
aI2103
aI19024
aI14502
aI11237
aI24173
aI14260
aI10463
aI22419
aI11054
aI19298
aI8306
aI21560
aI21414
aI18104
aI5128
aI2099
aI1367
aI19897
aI3585
aI13750
aI13027
aI23177
aI22974
aI6105
aI3522
aI14400
aI10396
aI19316
aI7167
aI15411
aI22756
aI9654
aI9382
aI11458
aI10560
aI4705
aI2273
aI20895
aI4413
aI4487
aI318
aI2786
aI10570
aI9384
aI4587
aI10710
aI21326
aI19683
aI1311
aI2721
aI20855
aI5523
aI5168
aI2565
aI3893
aI5765
aI2787
aI6357
aI10081
aI13739
aI14610
aI21039
aI10229
aI1021
aI11133
aI2289
aI23240
aI24009
aI10915
aI23483
aI18940
aI9953
aI6288
aI1422
aI14886
aI782
aI18705
aI2745
aI512
aI12807
aI15831
aI15353
aI1743
aI15036
aI8062
aI11332
aI6360
aI2165
aI14930
aI23051
aI21072
aI7541
aI7888
aI2799
aI22636
aI5137
aI8110
aI13635
aI8681
aI14619
aI2780
aI21518
aI9464
aI4974
aI6924
aI756
aI4555
aI24093
aI10022
aI9610
aI606
aI14140
aI12415
aI9338
aI21029
aI10167
aI9581
aI19889
aI7570
aI23270
aI23666
aI20957
aI6169
aI19359
aI3420
aI18725
aI131
aI17679
aI13351
aI19030
aI18147
aI20317
aI12703
aI2567
aI23801
aI7834
aI16221
aI12870
aI16244
aI74
aI9010
aI14804
aI4464
aI13743
aI19767
aI24099
aI14520
aI17751
aI19201
aI5668
aI10062
aI20209
aI5857
aI22762
aI9347
aI10320
aI18911
aI17336
aI3323
aI14445
aI16073
aI3330
aI17263
aI13481
aI4141
aI23931
aI5658
aI4153
aI6710
aI12684
aI2836
aI7709
aI10780
aI12255
aI12537
aI18472
aI1329
aI9725
aI17740
aI5214
aI22879
aI11812
aI1117
aI14219
aI19971
aI304
aI4682
aI13142
aI3282
aI14284
aI19950
aI22243
aI17074
aI6805
aI22972
aI21127
aI22253
aI232
aI17876
aI1423
aI6781
aI1241
aI18375
aI6749
aI9695
aI1848
aI6110
aI23361
aI7430
aI22940
aI21858
aI9001
aI9271
aI13920
aI8723
aI9619
aI910
aI2808
aI23847
aI2443
aI420
aI14901
aI19960
aI17903
aI19662
aI1408
aI19217
aI11707
aI1455
aI9573
aI16671
aI20031
aI12462
aI15874
aI945
aI21169
aI21085
aI12603
aI11777
aI16022
aI1567
aI7524
aI6817
aI1025
aI11655
aI11553
aI6984
aI19423
aI850
aI19498
aI18417
aI2739
aI2008
aI13902
aI2302
aI13439
aI820
aI3901
aI23731
aI5866
aI23073
aI13394
aI22350
aI2439
aI11289
aI20689
aI7169
aI8588
aI9335
aI19877
aI6221
aI467
aI9371
aI11112
aI8246
aI23445
aI13045
aI4808
aI4124
aI5330
aI20703
aI14964
aI23955
aI23991
aI12871
aI1033
aI14674
aI2730
aI6993
aI12917
aI6107
aI6573
aI12558
aI6900
aI17162
aI7395
aI7074
aI6556
aI18338
aI22259
aI10119
aI21528
aI13631
aI12706
aI4305
aI6783
aI19882
aI11489
aI2762
aI3256
aI21686
aI1705
aI18376
aI19845
aI3759
aI16753
aI16710
aI14974
aI20473
aI2064
aI12943
aI23752
aI776
aI5165
aI18392
aI6044
aI15894
aI11504
aI9153
aI16585
aI12231
aI24078
aI16191
aI2258
aI2983
aI23075
aI3329
aI11055
aI22013
aI5385
aI21295
aI10222
aI17502
aI2260
aI21478
aI4896
aI895
aI3823
aI15334
aI18479
aI6618
aI8698
aI15536
aI14691
aI16758
aI15421
aI3547
aI21113
aI21513
aI3685
aI12938
aI23020
aI17188
aI1902
aI11356
aI22302
aI20413
aI3477
aI16343
aI13325
aI2329
aI13670
aI8021
aI7576
aI19012
aI13864
aI11937
aI5048
aI1214
aI15920
aI723
aI9400
aI5440
aI4158
aI1547
aI19439
aI2217
aI5116
aI14783
aI929
aI17951
aI5494
aI18215
aI15041
aI15332
aI22992
aI4324
aI11398
aI10482
aI7474
aI23374
aI5629
aI1706
aI15018
aI8973
aI5442
aI12021
aI10851
aI13880
aI19994
aI7492
aI8614
aI17376
aI16824
aI3894
aI1175
aI3024
aI14979
aI11361
aI554
aI1004
aI24196
aI16456
aI17957
aI8348
aI19178
aI22295
aI22792
aI21244
aI14117
aI8451
aI13803
aI13113
aI18641
aI13468
aI16276
aI22958
aI18518
aI12704
aI688
aI1256
aI13151
aI2068
aI600
aI1097
aI3988
aI5222
aI16323
aI23146
aI22658
aI11312
aI19630
aI8384
aI16121
aI10079
aI14923
aI935
aI16023
aI15969
aI20726
aI23667
aI24300
aI17456
aI784
aI15260
aI9270
aI9420
aI23898
aI87
aI404
aI1484
aI22361
aI9742
aI20118
aI8677
aI16096
aI11204
aI22007
aI9491
aI19679
aI11752
aI5362
aI10990
aI19081
aI20553
aI15497
aI14820
aI18808
aI15241
aI22844
aI21685
aI15367
aI1012
aI10906
aI19553
aI10065
aI24289
aI2642
aI3168
aI13534
aI23230
aI23419
aI13105
aI5410
aI11685
aI22072
aI13357
aI23965
aI7994
aI18162
aI22840
aI15209
aI20309
aI7539
aI9802
aI22012
aI15663
aI1201
aI7289
aI11790
aI7957
aI18345
aI9835
aI4185
aI16289
aI11873
aI2365
aI20548
aI16140
aI1421
aI19130
aI9286
aI19347
aI7757
aI9036
aI4580
aI3550
aI9449
aI23502
aI12050
aI1618
aI23191
aI14546
aI16555
aI17288
aI8683
aI22177
aI8989
aI22486
aI4516
aI9117
aI3884
aI4421
aI17727
aI17721
aI3496
aI8011
aI3495
aI11594
aI2321
aI13494
aI18595
aI2723
aI9433
aI8347
aI1770
aI15057
aI8417
aI9350
aI14191
aI10819
aI15276
aI19162
aI1216
aI13071
aI13291
aI18027
aI2797
aI7680
aI9003
aI19446
aI9391
aI18965
aI21104
aI11817
aI3785
aI11899
aI5042
aI11158
aI14332
aI12110
aI10156
aI15928
aI6988
aI4277
aI11236
aI22120
aI19624
aI3632
aI9358
aI23467
aI2804
aI16605
aI6738
aI12272
aI1755
aI23262
aI15055
aI20037
aI10826
aI16770
aI9634
aI12972
aI6994
aI4760
aI9225
aI21655
aI9617
aI21389
aI6026
aI10458
aI11195
aI8017
aI11825
aI134
aI7666
aI8662
aI16806
aI2192
a.