(dp0
S'id2verb'
p1
(dp2
I0
S'curling'
p3
sI1
S'braiding'
p4
sI2
S'moisturizing'
p5
sI3
S'spinning'
p6
sI4
S'calming'
p7
sI5
S'arching'
p8
sI6
S'arranging'
p9
sI7
S'dusting'
p10
sI8
S'nagging'
p11
sI9
S'puckering'
p12
sI10
S'applying'
p13
sI11
S'shopping'
p14
sI12
S'sewing'
p15
sI13
S'twisting'
p16
sI14
S'brushing'
p17
sI15
S'grieving'
p18
sI16
S'combing'
p19
sI17
S'giggling'
p20
sI18
S'drying'
p21
sI19
S'hanging'
p22
sI20
S'stretching'
p23
sI21
S'microwaving'
p24
sI22
S'crowning'
p25
sI23
S'exercising'
p26
sI24
S'wrinkling'
p27
sI25
S'smelling'
p28
sI26
S'washing'
p29
sI27
S'telephoning'
p30
sI28
S'twirling'
p31
sI29
S'chewing'
p32
sI30
S'sneezing'
p33
sI31
S'cooking'
p34
sI32
S'weeping'
p35
sI33
S'dyeing'
p36
sI34
S'browsing'
p37
sI35
S'biting'
p38
sI36
S'shivering'
p39
sI37
S'baking'
p40
sI38
S'buying'
p41
sI39
S'pinching'
p42
sI40
S'calling'
p43
sI41
S'tasting'
p44
sI42
S'picking'
p45
sI43
S'smiling'
p46
sI44
S'jogging'
p47
sI45
S'shushing'
p48
sI46
S'serving'
p49
sI47
S'studying'
p50
sI48
S'practicing'
p51
sI49
S'eating'
p52
sI50
S'admiring'
p53
sI51
S'covering'
p54
sI52
S'hugging'
p55
sI53
S'patting'
p56
sI54
S'crying'
p57
sI55
S'gasping'
p58
sI56
S'phoning'
p59
sI57
S'encouraging'
p60
sI58
S'drinking'
p61
sI59
S'buckling'
p62
sI60
S'milking'
p63
sI61
S'reading'
p64
sI62
S'mopping'
p65
sI63
S'stuffing'
p66
sI64
S'coughing'
p67
sI65
S'ignoring'
p68
sI66
S'talking'
p69
sI67
S'vacuuming'
p70
sI68
S'perspiring'
p71
sI69
S'pinning'
p72
sI70
S'tickling'
p73
sI71
S'embracing'
p74
sI72
S'shelving'
p75
sI73
S'instructing'
p76
sI74
S'asking'
p77
sI75
S'putting'
p78
sI76
S'examining'
p79
sI77
S'licking'
p80
sI78
S'hitchhiking'
p81
sI79
S'cleaning'
p82
sI80
S'caressing'
p83
sI81
S'complaining'
p84
sI82
S'riding'
p85
sI83
S'sleeping'
p86
sI84
S'communicating'
p87
sI85
S'yanking'
p88
sI86
S'leaning'
p89
sI87
S'vaulting'
p90
sI88
S'scratching'
p91
sI89
S'tripping'
p92
sI90
S'carrying'
p93
sI91
S'hoeing'
p94
sI92
S'rubbing'
p95
sI93
S'sitting'
p96
sI94
S'walking'
p97
sI95
S'snuggling'
p98
sI96
S'buttoning'
p99
sI97
S'interviewing'
p100
sI98
S'gambling'
p101
sI99
S'skating'
p102
sI100
S'pushing'
p103
sI101
S'crouching'
p104
sI102
S'grinning'
p105
sI103
S'working'
p106
sI104
S'frying'
p107
sI105
S'sweeping'
p108
sI106
S'rowing'
p109
sI107
S'spying'
p110
sI108
S'hunching'
p111
sI109
S'rehabilitating'
p112
sI110
S'recuperating'
p113
sI111
S'immersing'
p114
sI112
S'confronting'
p115
sI113
S'frowning'
p116
sI114
S'driving'
p117
sI115
S'laughing'
p118
sI116
S'running'
p119
sI117
S'stacking'
p120
sI118
S'wheeling'
p121
sI119
S'kissing'
p122
sI120
S'kneeling'
p123
sI121
S'raking'
p124
sI122
S'pumping'
p125
sI123
S'praying'
p126
sI124
S'jumping'
p127
sI125
S'heaving'
p128
sI126
S'stooping'
p129
sI127
S'distributing'
p130
sI128
S'kicking'
p131
sI129
S'standing'
p132
sI130
S'tying'
p133
sI131
S'leaping'
p134
sI132
S'staring'
p135
sI133
S'photographing'
p136
sI134
S'spreading'
p137
sI135
S'begging'
p138
sI136
S'stripping'
p139
sI137
S'pedaling'
p140
sI138
S'speaking'
p141
sI139
S'squinting'
p142
sI140
S'shouting'
p143
sI141
S'saluting'
p144
sI142
S'waving'
p145
sI143
S'autographing'
p146
sI144
S'painting'
p147
sI145
S'falling'
p148
sI146
S'climbing'
p149
sI147
S'glaring'
p150
sI148
S'videotaping'
p151
sI149
S'mending'
p152
sI150
S'grimacing'
p153
sI151
S'signing'
p154
sI152
S'applauding'
p155
sI153
S'lifting'
p156
sI154
S'hitting'
p157
sI155
S'knocking'
p158
sI156
S'training'
p159
sI157
S'shooting'
p160
sI158
S'offering'
p161
sI159
S'saying'
p162
sI160
S'scraping'
p163
sI161
S'throwing'
p164
sI162
S'peeing'
p165
sI163
S'spraying'
p166
sI164
S'aiming'
p167
sI165
S'lecturing'
p168
sI166
S'spitting'
p169
sI167
S'dragging'
p170
sI168
S'biking'
p171
sI169
S'operating'
p172
sI170
S'shoveling'
p173
sI171
S'trimming'
p174
sI172
S'ducking'
p175
sI173
S'catching'
p176
sI174
S'grinding'
p177
sI175
S'shaving'
p178
sI176
S'tattooing'
p179
sI177
S'unveiling'
p180
sI178
S'fishing'
p181
sI179
S'shaking'
p182
sI180
S'dousing'
p183
sI181
S'assembling'
p184
sI182
S'juggling'
p185
sI183
S'bowing'
p186
sI184
S'sealing'
p187
sI185
S'panhandling'
p188
sI186
S'drumming'
p189
sI187
S'shearing'
p190
sI188
S'flexing'
p191
sI189
S'tilling'
p192
sI190
S'interrogating'
p193
sI191
S'loading'
p194
sI192
S'chiseling'
p195
sI193
S'tuning'
p196
sI194
S'sharpening'
p197
sI195
S'handcuffing'
p198
sI196
S'brewing'
p199
sI197
S'baptizing'
p200
sI198
S'urinating'
p201
sI199
S'fueling'
p202
sI200
S'nailing'
p203
sI201
S'mowing'
p204
sI202
S'preaching'
p205
sI203
S'barbecuing'
p206
sI204
S'pitching'
p207
sI205
S'hunting'
p208
sI206
S'fixing'
p209
sI207
S'coaching'
p210
sI208
S'installing'
p211
sI209
S'spearing'
p212
sI210
S'repairing'
p213
ssS'verb2id'
p214
(dp215
g179
I176
sg162
I159
sg97
I94
sg49
I46
sg39
I36
sg152
I149
sg30
I27
sg184
I181
sg202
I199
sg181
I178
sg22
I19
sg46
I43
sg126
I123
sg58
I55
sg123
I120
sg194
I191
sg208
I205
sg26
I23
sg143
I140
sg210
I207
sg112
I109
sg32
I29
sg57
I54
sg85
I82
sg94
I91
sg174
I171
sg155
I152
sg180
I177
sg96
I93
sg33
I30
sg138
I135
sg116
I113
sg166
I163
sg88
I85
sg78
I75
sg55
I52
sg154
I151
sg108
I105
sg13
I10
sg61
I58
sg167
I164
sg29
I26
sg54
I51
sg109
I106
sg80
I77
sg43
I40
sg36
I33
sg204
I201
sg201
I198
sg118
I115
sg199
I196
sg175
I172
sg121
I118
sg182
I179
sg114
I111
sg168
I165
sg164
I161
sg4
I1
sg129
I126
sg211
I208
sg209
I206
sg134
I131
sg176
I173
sg185
I182
sg31
I28
sg91
I88
sg190
I187
sg117
I114
sg34
I31
sg177
I174
sg12
I9
sg77
I74
sg27
I24
sg144
I141
sg148
I145
sg64
I61
sg132
I129
sg103
I100
sg52
I49
sg62
I59
sg89
I86
sg81
I78
sg70
I67
sg125
I122
sg131
I128
sg59
I56
sg172
I169
sg45
I42
sg92
I89
sg135
I132
sg213
I210
sg159
I156
sg189
I186
sg23
I20
sg153
I150
sg68
I65
sg72
I69
sg197
I194
sg47
I44
sg203
I200
sg37
I34
sg38
I35
sg187
I184
sg18
I15
sg79
I76
sg10
I7
sg3
I0
sg71
I68
sg137
I134
sg151
I148
sg158
I155
sg60
I57
sg98
I95
sg111
I108
sg6
I3
sg124
I121
sg104
I101
sg186
I183
sg7
I4
sg157
I154
sg207
I204
sg140
I137
sg196
I193
sg106
I103
sg44
I41
sg142
I139
sg8
I5
sg195
I192
sg130
I127
sg120
I117
sg100
I97
sg35
I32
sg200
I197
sg76
I73
sg141
I138
sg188
I185
sg14
I11
sg19
I16
sg161
I158
sg67
I64
sg5
I2
sg93
I90
sg42
I39
sg99
I96
sg133
I130
sg9
I6
sg11
I8
sg41
I38
sg51
I48
sg163
I160
sg48
I45
sg183
I180
sg136
I133
sg105
I102
sg65
I62
sg122
I119
sg178
I175
sg171
I168
sg102
I99
sg66
I63
sg192
I189
sg205
I202
sg25
I22
sg110
I107
sg95
I92
sg86
I83
sg56
I53
sg69
I66
sg128
I125
sg107
I104
sg193
I190
sg160
I157
sg212
I209
sg24
I21
sg170
I167
sg75
I72
sg206
I203
sg84
I81
sg50
I47
sg21
I18
sg73
I70
sg113
I110
sg63
I60
sg101
I98
sg173
I170
sg150
I147
sg115
I112
sg17
I14
sg40
I37
sg90
I87
sg87
I84
sg15
I12
sg145
I142
sg119
I116
sg127
I124
sg82
I79
sg169
I166
sg28
I25
sg149
I146
sg156
I153
sg165
I162
sg20
I17
sg83
I80
sg16
I13
sg53
I50
sg139
I136
sg191
I188
sg74
I71
sg147
I144
sg198
I195
sg146
I143
ss.